  402b54:	75 ea                	jne    402b40 <__libc_csu_init+0x40>
  402b56:	48 83 c4 08          	add    $0x8,%rsp
  402b5a:	5b                   	pop    %rbx
  402b5b:	5d                   	pop    %rbp
  402b5c:	41 5c                	pop    %r12
  402b5e:	41 5d                	pop    %r13
  402b60:	41 5e                	pop    %r14
  402b62:	41 5f                	pop    %r15
  402b64:	c3                   	retq   
  402b65:	90                   	nop
  402b66:	66 2e 0f 1f 84 00 00 	nopw   %cs:0x0(%rax,%rax,1)
  402b6d:	00 00 00 

0000000000402b70 <__libc_csu_fini>:
  402b70:	f3 c3                	repz retq 

Disassembly of section .fini:

0000000000402b74 <_fini>:
  402b74:	48 83 ec 08          	sub    $0x8,%rsp
  402b78:	48 83 c4 08          	add    $0x8,%rsp
  402b7c:	c3                   	retq   
bash-4.2$ clear

bash-4.2$ objdump -d ctarget

ctarget:     file format elf64-x86-64


Disassembly of section .init:

0000000000400bc8 <_init>:
  400bc8:	48 83 ec 08          	sub    $0x8,%rsp
  400bcc:	48 8b 05 25 34 20 00 	mov    0x203425(%rip),%rax        # 603ff8 <_DYNAMIC+0x1d0>
  400bd3:	48 85 c0             	test   %rax,%rax
  400bd6:	74 05                	je     400bdd <_init+0x15>
  400bd8:	e8 33 01 00 00       	callq  400d10 <__gmon_start__@plt>
  400bdd:	48 83 c4 08          	add    $0x8,%rsp
  400be1:	c3                   	retq   

Disassembly of section .plt:

0000000000400bf0 <strcasecmp@plt-0x10>:
  400bf0:	ff 35 12 34 20 00    	pushq  0x203412(%rip)        # 604008 <_GLOBAL_OFFSET_TABLE_+0x8>
  400bf6:	ff 25 14 34 20 00    	jmpq   *0x203414(%rip)        # 604010 <_GLOBAL_OFFSET_TABLE_+0x10>
  400bfc:	0f 1f 40 00          	nopl   0x0(%rax)

0000000000400c00 <strcasecmp@plt>:
  400c00:	ff 25 12 34 20 00    	jmpq   *0x203412(%rip)        # 604018 <_GLOBAL_OFFSET_TABLE_+0x18>
  400c06:	68 00 00 00 00       	pushq  $0x0
  400c0b:	e9 e0 ff ff ff       	jmpq   400bf0 <_init+0x28>

0000000000400c10 <__errno_location@plt>:
  400c10:	ff 25 0a 34 20 00    	jmpq   *0x20340a(%rip)        # 604020 <_GLOBAL_OFFSET_TABLE_+0x20>
  400c16:	68 01 00 00 00       	pushq  $0x1
  400c1b:	e9 d0 ff ff ff       	jmpq   400bf0 <_init+0x28>

0000000000400c20 <srandom@plt>:
  400c20:	ff 25 02 34 20 00    	jmpq   *0x203402(%rip)        # 604028 <_GLOBAL_OFFSET_TABLE_+0x28>
  400c26:	68 02 00 00 00       	pushq  $0x2
  400c2b:	e9 c0 ff ff ff       	jmpq   400bf0 <_init+0x28>

0000000000400c30 <strncmp@plt>:
  400c30:	ff 25 fa 33 20 00    	jmpq   *0x2033fa(%rip)        # 604030 <_GLOBAL_OFFSET_TABLE_+0x30>
  400c36:	68 03 00 00 00       	pushq  $0x3
  400c3b:	e9 b0 ff ff ff       	jmpq   400bf0 <_init+0x28>

0000000000400c40 <strcpy@plt>:
  400c40:	ff 25 f2 33 20 00    	jmpq   *0x2033f2(%rip)        # 604038 <_GLOBAL_OFFSET_TABLE_+0x38>
  400c46:	68 04 00 00 00       	pushq  $0x4
  400c4b:	e9 a0 ff ff ff       	jmpq   400bf0 <_init+0x28>

0000000000400c50 <puts@plt>:
  400c50:	ff 25 ea 33 20 00    	jmpq   *0x2033ea(%rip)        # 604040 <_GLOBAL_OFFSET_TABLE_+0x40>
  400c56:	68 05 00 00 00       	pushq  $0x5
  400c5b:	e9 90 ff ff ff       	jmpq   400bf0 <_init+0x28>

0000000000400c60 <write@plt>:
  400c60:	ff 25 e2 33 20 00    	jmpq   *0x2033e2(%rip)        # 604048 <_GLOBAL_OFFSET_TABLE_+0x48>
  400c66:	68 06 00 00 00       	pushq  $0x6
  400c6b:	e9 80 ff ff ff       	jmpq   400bf0 <_init+0x28>

0000000000400c70 <mmap@plt>:
  400c70:	ff 25 da 33 20 00    	jmpq   *0x2033da(%rip)        # 604050 <_GLOBAL_OFFSET_TABLE_+0x50>
  400c76:	68 07 00 00 00       	pushq  $0x7
  400c7b:	e9 70 ff ff ff       	jmpq   400bf0 <_init+0x28>

0000000000400c80 <printf@plt>:
  400c80:	ff 25 d2 33 20 00    	jmpq   *0x2033d2(%rip)        # 604058 <_GLOBAL_OFFSET_TABLE_+0x58>
  400c86:	68 08 00 00 00       	pushq  $0x8
  400c8b:	e9 60 ff ff ff       	jmpq   400bf0 <_init+0x28>

0000000000400c90 <memset@plt>:
  400c90:	ff 25 ca 33 20 00    	jmpq   *0x2033ca(%rip)        # 604060 <_GLOBAL_OFFSET_TABLE_+0x60>
  400c96:	68 09 00 00 00       	pushq  $0x9
  400c9b:	e9 50 ff ff ff       	jmpq   400bf0 <_init+0x28>

0000000000400ca0 <alarm@plt>:
  400ca0:	ff 25 c2 33 20 00    	jmpq   *0x2033c2(%rip)        # 604068 <_GLOBAL_OFFSET_TABLE_+0x68>
  400ca6:	68 0a 00 00 00       	pushq  $0xa
  400cab:	e9 40 ff ff ff       	jmpq   400bf0 <_init+0x28>

0000000000400cb0 <close@plt>:
  400cb0:	ff 25 ba 33 20 00    	jmpq   *0x2033ba(%rip)        # 604070 <_GLOBAL_OFFSET_TABLE_+0x70>
  400cb6:	68 0b 00 00 00       	pushq  $0xb
  400cbb:	e9 30 ff ff ff       	jmpq   400bf0 <_init+0x28>

0000000000400cc0 <read@plt>:
  400cc0:	ff 25 b2 33 20 00    	jmpq   *0x2033b2(%rip)        # 604078 <_GLOBAL_OFFSET_TABLE_+0x78>
  400cc6:	68 0c 00 00 00       	pushq  $0xc
  400ccb:	e9 20 ff ff ff       	jmpq   400bf0 <_init+0x28>

0000000000400cd0 <__libc_start_main@plt>:
  400cd0:	ff 25 aa 33 20 00    	jmpq   *0x2033aa(%rip)        # 604080 <_GLOBAL_OFFSET_TABLE_+0x80>
  400cd6:	68 0d 00 00 00       	pushq  $0xd
  400cdb:	e9 10 ff ff ff       	jmpq   400bf0 <_init+0x28>

0000000000400ce0 <signal@plt>:
  400ce0:	ff 25 a2 33 20 00    	jmpq   *0x2033a2(%rip)        # 604088 <_GLOBAL_OFFSET_TABLE_+0x88>
  400ce6:	68 0e 00 00 00       	pushq  $0xe
  400ceb:	e9 00 ff ff ff       	jmpq   400bf0 <_init+0x28>

0000000000400cf0 <gethostbyname@plt>:
  400cf0:	ff 25 9a 33 20 00    	jmpq   *0x20339a(%rip)        # 604090 <_GLOBAL_OFFSET_TABLE_+0x90>
  400cf6:	68 0f 00 00 00       	pushq  $0xf
  400cfb:	e9 f0 fe ff ff       	jmpq   400bf0 <_init+0x28>

0000000000400d00 <fprintf@plt>:
  400d00:	ff 25 92 33 20 00    	jmpq   *0x203392(%rip)        # 604098 <_GLOBAL_OFFSET_TABLE_+0x98>
  400d06:	68 10 00 00 00       	pushq  $0x10
  400d0b:	e9 e0 fe ff ff       	jmpq   400bf0 <_init+0x28>

0000000000400d10 <__gmon_start__@plt>:
  400d10:	ff 25 8a 33 20 00    	jmpq   *0x20338a(%rip)        # 6040a0 <_GLOBAL_OFFSET_TABLE_+0xa0>
  400d16:	68 11 00 00 00       	pushq  $0x11
  400d1b:	e9 d0 fe ff ff       	jmpq   400bf0 <_init+0x28>

0000000000400d20 <strtol@plt>:
  400d20:	ff 25 82 33 20 00    	jmpq   *0x203382(%rip)        # 6040a8 <_GLOBAL_OFFSET_TABLE_+0xa8>
  400d26:	68 12 00 00 00       	pushq  $0x12
  400d2b:	e9 c0 fe ff ff       	jmpq   400bf0 <_init+0x28>

0000000000400d30 <memcpy@plt>:
  400d30:	ff 25 7a 33 20 00    	jmpq   *0x20337a(%rip)        # 6040b0 <_GLOBAL_OFFSET_TABLE_+0xb0>
  400d36:	68 13 00 00 00       	pushq  $0x13
  400d3b:	e9 b0 fe ff ff       	jmpq   400bf0 <_init+0x28>

0000000000400d40 <time@plt>:
  400d40:	ff 25 72 33 20 00    	jmpq   *0x203372(%rip)        # 6040b8 <_GLOBAL_OFFSET_TABLE_+0xb8>
  400d46:	68 14 00 00 00       	pushq  $0x14
  400d4b:	e9 a0 fe ff ff       	jmpq   400bf0 <_init+0x28>

0000000000400d50 <random@plt>:
  400d50:	ff 25 6a 33 20 00    	jmpq   *0x20336a(%rip)        # 6040c0 <_GLOBAL_OFFSET_TABLE_+0xc0>
  400d56:	68 15 00 00 00       	pushq  $0x15
  400d5b:	e9 90 fe ff ff       	jmpq   400bf0 <_init+0x28>

0000000000400d60 <_IO_getc@plt>:
  400d60:	ff 25 62 33 20 00    	jmpq   *0x203362(%rip)        # 6040c8 <_GLOBAL_OFFSET_TABLE_+0xc8>
  400d66:	68 16 00 00 00       	pushq  $0x16
  400d6b:	e9 80 fe ff ff       	jmpq   400bf0 <_init+0x28>

0000000000400d70 <__isoc99_sscanf@plt>:
  400d70:	ff 25 5a 33 20 00    	jmpq   *0x20335a(%rip)        # 6040d0 <_GLOBAL_OFFSET_TABLE_+0xd0>
  400d76:	68 17 00 00 00       	pushq  $0x17
  400d7b:	e9 70 fe ff ff       	jmpq   400bf0 <_init+0x28>

0000000000400d80 <munmap@plt>:
  400d80:	ff 25 52 33 20 00    	jmpq   *0x203352(%rip)        # 6040d8 <_GLOBAL_OFFSET_TABLE_+0xd8>
  400d86:	68 18 00 00 00       	pushq  $0x18
  400d8b:	e9 60 fe ff ff       	jmpq   400bf0 <_init+0x28>

0000000000400d90 <bcopy@plt>:
  400d90:	ff 25 4a 33 20 00    	jmpq   *0x20334a(%rip)        # 6040e0 <_GLOBAL_OFFSET_TABLE_+0xe0>
  400d96:	68 19 00 00 00       	pushq  $0x19
  400d9b:	e9 50 fe ff ff       	jmpq   400bf0 <_init+0x28>

0000000000400da0 <fopen@plt>:
  400da0:	ff 25 42 33 20 00    	jmpq   *0x203342(%rip)        # 6040e8 <_GLOBAL_OFFSET_TABLE_+0xe8>
  400da6:	68 1a 00 00 00       	pushq  $0x1a
  400dab:	e9 40 fe ff ff       	jmpq   400bf0 <_init+0x28>

0000000000400db0 <getopt@plt>:
  400db0:	ff 25 3a 33 20 00    	jmpq   *0x20333a(%rip)        # 6040f0 <_GLOBAL_OFFSET_TABLE_+0xf0>
  400db6:	68 1b 00 00 00       	pushq  $0x1b
  400dbb:	e9 30 fe ff ff       	jmpq   400bf0 <_init+0x28>

0000000000400dc0 <strtoul@plt>:
  400dc0:	ff 25 32 33 20 00    	jmpq   *0x203332(%rip)        # 6040f8 <_GLOBAL_OFFSET_TABLE_+0xf8>
  400dc6:	68 1c 00 00 00       	pushq  $0x1c
  400dcb:	e9 20 fe ff ff       	jmpq   400bf0 <_init+0x28>

0000000000400dd0 <gethostname@plt>:
  400dd0:	ff 25 2a 33 20 00    	jmpq   *0x20332a(%rip)        # 604100 <_GLOBAL_OFFSET_TABLE_+0x100>
  400dd6:	68 1d 00 00 00       	pushq  $0x1d
  400ddb:	e9 10 fe ff ff       	jmpq   400bf0 <_init+0x28>

0000000000400de0 <sprintf@plt>:
  400de0:	ff 25 22 33 20 00    	jmpq   *0x203322(%rip)        # 604108 <_GLOBAL_OFFSET_TABLE_+0x108>
  400de6:	68 1e 00 00 00       	pushq  $0x1e
  400deb:	e9 00 fe ff ff       	jmpq   400bf0 <_init+0x28>

0000000000400df0 <exit@plt>:
  400df0:	ff 25 1a 33 20 00    	jmpq   *0x20331a(%rip)        # 604110 <_GLOBAL_OFFSET_TABLE_+0x110>
  400df6:	68 1f 00 00 00       	pushq  $0x1f
  400dfb:	e9 f0 fd ff ff       	jmpq   400bf0 <_init+0x28>

0000000000400e00 <connect@plt>:
  400e00:	ff 25 12 33 20 00    	jmpq   *0x203312(%rip)        # 604118 <_GLOBAL_OFFSET_TABLE_+0x118>
  400e06:	68 20 00 00 00       	pushq  $0x20
  400e0b:	e9 e0 fd ff ff       	jmpq   400bf0 <_init+0x28>

0000000000400e10 <socket@plt>:
  400e10:	ff 25 0a 33 20 00    	jmpq   *0x20330a(%rip)        # 604120 <_GLOBAL_OFFSET_TABLE_+0x120>
  400e16:	68 21 00 00 00       	pushq  $0x21
  400e1b:	e9 d0 fd ff ff       	jmpq   400bf0 <_init+0x28>

Disassembly of section .text:

0000000000400e20 <_start>:
  400e20:	31 ed                	xor    %ebp,%ebp
  400e22:	49 89 d1             	mov    %rdx,%r9
  400e25:	5e                   	pop    %rsi
  400e26:	48 89 e2             	mov    %rsp,%rdx
  400e29:	48 83 e4 f0          	and    $0xfffffffffffffff0,%rsp
  400e2d:	50                   	push   %rax
  400e2e:	54                   	push   %rsp
  400e2f:	49 c7 c0 70 2b 40 00 	mov    $0x402b70,%r8
  400e36:	48 c7 c1 00 2b 40 00 	mov    $0x402b00,%rcx
  400e3d:	48 c7 c7 da 10 40 00 	mov    $0x4010da,%rdi
  400e44:	e8 87 fe ff ff       	callq  400cd0 <__libc_start_main@plt>
  400e49:	f4                   	hlt    
  400e4a:	66 0f 1f 44 00 00    	nopw   0x0(%rax,%rax,1)

0000000000400e50 <deregister_tm_clones>:
  400e50:	b8 b7 44 60 00       	mov    $0x6044b7,%eax
  400e55:	55                   	push   %rbp
  400e56:	48 2d b0 44 60 00    	sub    $0x6044b0,%rax
  400e5c:	48 83 f8 0e          	cmp    $0xe,%rax
  400e60:	48 89 e5             	mov    %rsp,%rbp
  400e63:	77 02                	ja     400e67 <deregister_tm_clones+0x17>
  400e65:	5d                   	pop    %rbp
  400e66:	c3                   	retq   
  400e67:	b8 00 00 00 00       	mov    $0x0,%eax
  400e6c:	48 85 c0             	test   %rax,%rax
  400e6f:	74 f4                	je     400e65 <deregister_tm_clones+0x15>
  400e71:	5d                   	pop    %rbp
  400e72:	bf b0 44 60 00       	mov    $0x6044b0,%edi
  400e77:	ff e0                	jmpq   *%rax
  400e79:	0f 1f 80 00 00 00 00 	nopl   0x0(%rax)

0000000000400e80 <register_tm_clones>:
  400e80:	b8 b0 44 60 00       	mov    $0x6044b0,%eax
  400e85:	55                   	push   %rbp
  400e86:	48 2d b0 44 60 00    	sub    $0x6044b0,%rax
  400e8c:	48 c1 f8 03          	sar    $0x3,%rax
  400e90:	48 89 e5             	mov    %rsp,%rbp
  400e93:	48 89 c2             	mov    %rax,%rdx
  400e96:	48 c1 ea 3f          	shr    $0x3f,%rdx
  400e9a:	48 01 d0             	add    %rdx,%rax
  400e9d:	48 d1 f8             	sar    %rax
  400ea0:	75 02                	jne    400ea4 <register_tm_clones+0x24>
  400ea2:	5d                   	pop    %rbp
  400ea3:	c3                   	retq   
  400ea4:	ba 00 00 00 00       	mov    $0x0,%edx
  400ea9:	48 85 d2             	test   %rdx,%rdx
  400eac:	74 f4                	je     400ea2 <register_tm_clones+0x22>
  400eae:	5d                   	pop    %rbp
  400eaf:	48 89 c6             	mov    %rax,%rsi
  400eb2:	bf b0 44 60 00       	mov    $0x6044b0,%edi
  400eb7:	ff e2                	jmpq   *%rdx
  400eb9:	0f 1f 80 00 00 00 00 	nopl   0x0(%rax)

0000000000400ec0 <__do_global_dtors_aux>:
  400ec0:	80 3d 11 36 20 00 00 	cmpb   $0x0,0x203611(%rip)        # 6044d8 <completed.6344>
  400ec7:	75 11                	jne    400eda <__do_global_dtors_aux+0x1a>
  400ec9:	55                   	push   %rbp
  400eca:	48 89 e5             	mov    %rsp,%rbp
  400ecd:	e8 7e ff ff ff       	callq  400e50 <deregister_tm_clones>
  400ed2:	5d                   	pop    %rbp
  400ed3:	c6 05 fe 35 20 00 01 	movb   $0x1,0x2035fe(%rip)        # 6044d8 <completed.6344>
  400eda:	f3 c3                	repz retq 
  400edc:	0f 1f 40 00          	nopl   0x0(%rax)

0000000000400ee0 <frame_dummy>:
  400ee0:	48 83 3d 38 2f 20 00 	cmpq   $0x0,0x202f38(%rip)        # 603e20 <__JCR_END__>
  400ee7:	00 
  400ee8:	74 1e                	je     400f08 <frame_dummy+0x28>
  400eea:	b8 00 00 00 00       	mov    $0x0,%eax
  400eef:	48 85 c0             	test   %rax,%rax
  400ef2:	74 14                	je     400f08 <frame_dummy+0x28>
  400ef4:	55                   	push   %rbp
  400ef5:	bf 20 3e 60 00       	mov    $0x603e20,%edi
  400efa:	48 89 e5             	mov    %rsp,%rbp
  400efd:	ff d0                	callq  *%rax
  400eff:	5d                   	pop    %rbp
  400f00:	e9 7b ff ff ff       	jmpq   400e80 <register_tm_clones>
  400f05:	0f 1f 00             	nopl   (%rax)
  400f08:	e9 73 ff ff ff       	jmpq   400e80 <register_tm_clones>

0000000000400f0d <usage>:
  400f0d:	48 83 ec 08          	sub    $0x8,%rsp
  400f11:	48 89 fe             	mov    %rdi,%rsi
  400f14:	83 3d ed 35 20 00 00 	cmpl   $0x0,0x2035ed(%rip)        # 604508 <is_checker>
  400f1b:	74 39                	je     400f56 <usage+0x49>
  400f1d:	bf 90 2b 40 00       	mov    $0x402b90,%edi
  400f22:	b8 00 00 00 00       	mov    $0x0,%eax
  400f27:	e8 54 fd ff ff       	callq  400c80 <printf@plt>
  400f2c:	bf c8 2b 40 00       	mov    $0x402bc8,%edi
  400f31:	e8 1a fd ff ff       	callq  400c50 <puts@plt>
  400f36:	bf 40 2d 40 00       	mov    $0x402d40,%edi
  400f3b:	e8 10 fd ff ff       	callq  400c50 <puts@plt>
  400f40:	bf f0 2b 40 00       	mov    $0x402bf0,%edi
  400f45:	e8 06 fd ff ff       	callq  400c50 <puts@plt>
  400f4a:	bf 5a 2d 40 00       	mov    $0x402d5a,%edi
  400f4f:	e8 fc fc ff ff       	callq  400c50 <puts@plt>
  400f54:	eb 2d                	jmp    400f83 <usage+0x76>
  400f56:	bf 76 2d 40 00       	mov    $0x402d76,%edi
  400f5b:	b8 00 00 00 00       	mov    $0x0,%eax
  400f60:	e8 1b fd ff ff       	callq  400c80 <printf@plt>
  400f65:	bf 18 2c 40 00       	mov    $0x402c18,%edi
  400f6a:	e8 e1 fc ff ff       	callq  400c50 <puts@plt>
  400f6f:	bf 40 2c 40 00       	mov    $0x402c40,%edi
  400f74:	e8 d7 fc ff ff       	callq  400c50 <puts@plt>
  400f79:	bf 94 2d 40 00       	mov    $0x402d94,%edi
  400f7e:	e8 cd fc ff ff       	callq  400c50 <puts@plt>
  400f83:	bf 00 00 00 00       	mov    $0x0,%edi
  400f88:	e8 63 fe ff ff       	callq  400df0 <exit@plt>

0000000000400f8d <initialize_target>:
  400f8d:	55                   	push   %rbp
  400f8e:	53                   	push   %rbx
  400f8f:	48 81 ec 08 21 00 00 	sub    $0x2108,%rsp
  400f96:	89 f5                	mov    %esi,%ebp
  400f98:	89 3d 5a 35 20 00    	mov    %edi,0x20355a(%rip)        # 6044f8 <check_level>
  400f9e:	8b 3d c4 31 20 00    	mov    0x2031c4(%rip),%edi        # 604168 <target_id>
  400fa4:	e8 35 1b 00 00       	callq  402ade <gencookie>
  400fa9:	89 05 55 35 20 00    	mov    %eax,0x203555(%rip)        # 604504 <cookie>
  400faf:	89 c7                	mov    %eax,%edi
  400fb1:	e8 28 1b 00 00       	callq  402ade <gencookie>
  400fb6:	89 05 44 35 20 00    	mov    %eax,0x203544(%rip)        # 604500 <authkey>
  400fbc:	8b 05 a6 31 20 00    	mov    0x2031a6(%rip),%eax        # 604168 <target_id>
  400fc2:	8d 78 01             	lea    0x1(%rax),%edi
  400fc5:	e8 56 fc ff ff       	callq  400c20 <srandom@plt>
  400fca:	e8 81 fd ff ff       	callq  400d50 <random@plt>
  400fcf:	89 c7                	mov    %eax,%edi
  400fd1:	e8 c5 02 00 00       	callq  40129b <scramble>
  400fd6:	89 c3                	mov    %eax,%ebx
  400fd8:	ba 00 00 00 00       	mov    $0x0,%edx
  400fdd:	85 ed                	test   %ebp,%ebp
  400fdf:	74 18                	je     400ff9 <initialize_target+0x6c>
  400fe1:	bf 00 00 00 00       	mov    $0x0,%edi
  400fe6:	e8 55 fd ff ff       	callq  400d40 <time@plt>
  400feb:	89 c7                	mov    %eax,%edi
  400fed:	e8 2e fc ff ff       	callq  400c20 <srandom@plt>
  400ff2:	e8 59 fd ff ff       	callq  400d50 <random@plt>
  400ff7:	89 c2                	mov    %eax,%edx
  400ff9:	01 da                	add    %ebx,%edx
  400ffb:	0f b7 d2             	movzwl %dx,%edx
  400ffe:	8d 04 d5 00 01 00 00 	lea    0x100(,%rdx,8),%eax
  401005:	89 c0                	mov    %eax,%eax
  401007:	48 89 05 92 34 20 00 	mov    %rax,0x203492(%rip)        # 6044a0 <buf_offset>
  40100e:	c6 05 13 41 20 00 63 	movb   $0x63,0x204113(%rip)        # 605128 <target_prefix>
  401015:	83 3d 8c 34 20 00 00 	cmpl   $0x0,0x20348c(%rip)        # 6044a8 <notify>
  40101c:	0f 84 ae 00 00 00    	je     4010d0 <initialize_target+0x143>
  401022:	83 3d df 34 20 00 00 	cmpl   $0x0,0x2034df(%rip)        # 604508 <is_checker>
  401029:	0f 85 a1 00 00 00    	jne    4010d0 <initialize_target+0x143>
  40102f:	be 00 01 00 00       	mov    $0x100,%esi
  401034:	48 89 e7             	mov    %rsp,%rdi
  401037:	e8 94 fd ff ff       	callq  400dd0 <gethostname@plt>
  40103c:	85 c0                	test   %eax,%eax
  40103e:	75 13                	jne    401053 <initialize_target+0xc6>
  401040:	48 8b 3d 39 31 20 00 	mov    0x203139(%rip),%rdi        # 604180 <host_table>
  401047:	bb 88 41 60 00       	mov    $0x604188,%ebx
  40104c:	48 85 ff             	test   %rdi,%rdi
  40104f:	75 16                	jne    401067 <initialize_target+0xda>
  401051:	eb 50                	jmp    4010a3 <initialize_target+0x116>
  401053:	bf 70 2c 40 00       	mov    $0x402c70,%edi
  401058:	e8 f3 fb ff ff       	callq  400c50 <puts@plt>
  40105d:	bf 08 00 00 00       	mov    $0x8,%edi
  401062:	e8 89 fd ff ff       	callq  400df0 <exit@plt>
  401067:	48 89 e6             	mov    %rsp,%rsi
  40106a:	e8 91 fb ff ff       	callq  400c00 <strcasecmp@plt>
  40106f:	85 c0                	test   %eax,%eax
  401071:	74 4c                	je     4010bf <initialize_target+0x132>
  401073:	48 83 c3 08          	add    $0x8,%rbx
  401077:	48 8b 7b f8          	mov    -0x8(%rbx),%rdi
  40107b:	48 85 ff             	test   %rdi,%rdi
  40107e:	75 e7                	jne    401067 <initialize_target+0xda>
  401080:	eb 21                	jmp    4010a3 <initialize_target+0x116>
  401082:	48 8d b4 24 00 01 00 	lea    0x100(%rsp),%rsi
  401089:	00 
  40108a:	bf a8 2c 40 00       	mov    $0x402ca8,%edi
  40108f:	b8 00 00 00 00       	mov    $0x0,%eax
  401094:	e8 e7 fb ff ff       	callq  400c80 <printf@plt>
  401099:	bf 08 00 00 00       	mov    $0x8,%edi
  40109e:	e8 4d fd ff ff       	callq  400df0 <exit@plt>
  4010a3:	48 89 e6             	mov    %rsp,%rsi
  4010a6:	bf d0 2c 40 00       	mov    $0x402cd0,%edi
  4010ab:	b8 00 00 00 00       	mov    $0x0,%eax
  4010b0:	e8 cb fb ff ff       	callq  400c80 <printf@plt>
  4010b5:	bf 08 00 00 00       	mov    $0x8,%edi
  4010ba:	e8 31 fd ff ff       	callq  400df0 <exit@plt>
  4010bf:	48 8d bc 24 00 01 00 	lea    0x100(%rsp),%rdi
  4010c6:	00 
  4010c7:	e8 8e 17 00 00       	callq  40285a <init_driver>
  4010cc:	85 c0                	test   %eax,%eax
  4010ce:	78 b2                	js     401082 <initialize_target+0xf5>
  4010d0:	48 81 c4 08 21 00 00 	add    $0x2108,%rsp
  4010d7:	5b                   	pop    %rbx
  4010d8:	5d                   	pop    %rbp
  4010d9:	c3                   	retq   

00000000004010da <main>:
  4010da:	41 56                	push   %r14
  4010dc:	41 55                	push   %r13
  4010de:	41 54                	push   %r12
  4010e0:	55                   	push   %rbp
  4010e1:	53                   	push   %rbx
  4010e2:	41 89 fc             	mov    %edi,%r12d
  4010e5:	48 89 f3             	mov    %rsi,%rbx
  4010e8:	be 62 1c 40 00       	mov    $0x401c62,%esi
  4010ed:	bf 0b 00 00 00       	mov    $0xb,%edi
  4010f2:	e8 e9 fb ff ff       	callq  400ce0 <signal@plt>
  4010f7:	be 14 1c 40 00       	mov    $0x401c14,%esi
  4010fc:	bf 07 00 00 00       	mov    $0x7,%edi
  401101:	e8 da fb ff ff       	callq  400ce0 <signal@plt>
  401106:	be b0 1c 40 00       	mov    $0x401cb0,%esi
  40110b:	bf 04 00 00 00       	mov    $0x4,%edi
  401110:	e8 cb fb ff ff       	callq  400ce0 <signal@plt>
  401115:	bd ad 2d 40 00       	mov    $0x402dad,%ebp
  40111a:	83 3d e7 33 20 00 00 	cmpl   $0x0,0x2033e7(%rip)        # 604508 <is_checker>
  401121:	74 1e                	je     401141 <main+0x67>
  401123:	be fe 1c 40 00       	mov    $0x401cfe,%esi
  401128:	bf 0e 00 00 00       	mov    $0xe,%edi
  40112d:	e8 ae fb ff ff       	callq  400ce0 <signal@plt>
  401132:	bf 05 00 00 00       	mov    $0x5,%edi
  401137:	e8 64 fb ff ff       	callq  400ca0 <alarm@plt>
  40113c:	bd b2 2d 40 00       	mov    $0x402db2,%ebp
  401141:	48 8b 05 78 33 20 00 	mov    0x203378(%rip),%rax        # 6044c0 <stdin@@GLIBC_2.2.5>
  401148:	48 89 05 a1 33 20 00 	mov    %rax,0x2033a1(%rip)        # 6044f0 <infile>
  40114f:	41 bd 00 00 00 00    	mov    $0x0,%r13d
  401155:	41 be 00 00 00 00    	mov    $0x0,%r14d
  40115b:	e9 b9 00 00 00       	jmpq   401219 <main+0x13f>
  401160:	83 e8 61             	sub    $0x61,%eax
  401163:	3c 10                	cmp    $0x10,%al
  401165:	0f 87 93 00 00 00    	ja     4011fe <main+0x124>
  40116b:	0f b6 c0             	movzbl %al,%eax
  40116e:	ff 24 c5 f8 2d 40 00 	jmpq   *0x402df8(,%rax,8)
  401175:	48 8b 3b             	mov    (%rbx),%rdi
  401178:	e8 90 fd ff ff       	callq  400f0d <usage>
  40117d:	be 60 2f 40 00       	mov    $0x402f60,%esi
  401182:	48 8b 3d 3f 33 20 00 	mov    0x20333f(%rip),%rdi        # 6044c8 <optarg@@GLIBC_2.2.5>
  401189:	e8 12 fc ff ff       	callq  400da0 <fopen@plt>
  40118e:	48 89 05 5b 33 20 00 	mov    %rax,0x20335b(%rip)        # 6044f0 <infile>
  401195:	48 85 c0             	test   %rax,%rax
  401198:	75 7f                	jne    401219 <main+0x13f>
  40119a:	48 8b 15 27 33 20 00 	mov    0x203327(%rip),%rdx        # 6044c8 <optarg@@GLIBC_2.2.5>
  4011a1:	be ba 2d 40 00       	mov    $0x402dba,%esi
  4011a6:	48 8b 3d 23 33 20 00 	mov    0x203323(%rip),%rdi        # 6044d0 <stderr@@GLIBC_2.2.5>
  4011ad:	e8 4e fb ff ff       	callq  400d00 <fprintf@plt>
  4011b2:	b8 01 00 00 00       	mov    $0x1,%eax
  4011b7:	e9 d6 00 00 00       	jmpq   401292 <main+0x1b8>
  4011bc:	ba 10 00 00 00       	mov    $0x10,%edx
  4011c1:	be 00 00 00 00       	mov    $0x0,%esi
  4011c6:	48 8b 3d fb 32 20 00 	mov    0x2032fb(%rip),%rdi        # 6044c8 <optarg@@GLIBC_2.2.5>
  4011cd:	e8 ee fb ff ff       	callq  400dc0 <strtoul@plt>
  4011d2:	41 89 c6             	mov    %eax,%r14d
  4011d5:	eb 42                	jmp    401219 <main+0x13f>
  4011d7:	ba 0a 00 00 00       	mov    $0xa,%edx
  4011dc:	be 00 00 00 00       	mov    $0x0,%esi
  4011e1:	48 8b 3d e0 32 20 00 	mov    0x2032e0(%rip),%rdi        # 6044c8 <optarg@@GLIBC_2.2.5>
  4011e8:	e8 33 fb ff ff       	callq  400d20 <strtol@plt>
  4011ed:	41 89 c5             	mov    %eax,%r13d
  4011f0:	eb 27                	jmp    401219 <main+0x13f>
  4011f2:	c7 05 ac 32 20 00 00 	movl   $0x0,0x2032ac(%rip)        # 6044a8 <notify>
  4011f9:	00 00 00 
  4011fc:	eb 1b                	jmp    401219 <main+0x13f>
  4011fe:	40 0f be f6          	movsbl %sil,%esi
  401202:	bf d7 2d 40 00       	mov    $0x402dd7,%edi
  401207:	b8 00 00 00 00       	mov    $0x0,%eax
  40120c:	e8 6f fa ff ff       	callq  400c80 <printf@plt>
  401211:	48 8b 3b             	mov    (%rbx),%rdi
  401214:	e8 f4 fc ff ff       	callq  400f0d <usage>
  401219:	48 89 ea             	mov    %rbp,%rdx
  40121c:	48 89 de             	mov    %rbx,%rsi
  40121f:	44 89 e7             	mov    %r12d,%edi
  401222:	e8 89 fb ff ff       	callq  400db0 <getopt@plt>
  401227:	89 c6                	mov    %eax,%esi
  401229:	3c ff                	cmp    $0xff,%al
  40122b:	0f 85 2f ff ff ff    	jne    401160 <main+0x86>
  401231:	be 00 00 00 00       	mov    $0x0,%esi
  401236:	44 89 ef             	mov    %r13d,%edi
  401239:	e8 4f fd ff ff       	callq  400f8d <initialize_target>
  40123e:	83 3d c3 32 20 00 00 	cmpl   $0x0,0x2032c3(%rip)        # 604508 <is_checker>
  401245:	74 25                	je     40126c <main+0x192>
  401247:	44 3b 35 b2 32 20 00 	cmp    0x2032b2(%rip),%r14d        # 604500 <authkey>
  40124e:	74 1c                	je     40126c <main+0x192>
  401250:	44 89 f6             	mov    %r14d,%esi
  401253:	bf 10 2d 40 00       	mov    $0x402d10,%edi
  401258:	b8 00 00 00 00       	mov    $0x0,%eax
  40125d:	e8 1e fa ff ff       	callq  400c80 <printf@plt>
  401262:	b8 00 00 00 00       	mov    $0x0,%eax
  401267:	e8 0e 06 00 00       	callq  40187a <check_fail>
  40126c:	8b 35 92 32 20 00    	mov    0x203292(%rip),%esi        # 604504 <cookie>
  401272:	bf ea 2d 40 00       	mov    $0x402dea,%edi
  401277:	b8 00 00 00 00       	mov    $0x0,%eax
  40127c:	e8 ff f9 ff ff       	callq  400c80 <printf@plt>
  401281:	48 8b 3d 18 32 20 00 	mov    0x203218(%rip),%rdi        # 6044a0 <buf_offset>
  401288:	e8 40 0b 00 00       	callq  401dcd <stable_launch>
  40128d:	b8 00 00 00 00       	mov    $0x0,%eax
  401292:	5b                   	pop    %rbx
  401293:	5d                   	pop    %rbp
  401294:	41 5c                	pop    %r12
  401296:	41 5d                	pop    %r13
  401298:	41 5e                	pop    %r14
  40129a:	c3                   	retq   

000000000040129b <scramble>:
  40129b:	b8 00 00 00 00       	mov    $0x0,%eax
  4012a0:	89 c2                	mov    %eax,%edx
  4012a2:	89 7c 94 d0          	mov    %edi,-0x30(%rsp,%rdx,4)
  4012a6:	83 c0 01             	add    $0x1,%eax
  4012a9:	81 c7 eb 30 00 00    	add    $0x30eb,%edi
  4012af:	83 f8 0a             	cmp    $0xa,%eax
  4012b2:	75 ec                	jne    4012a0 <scramble+0x5>
  4012b4:	8b 44 24 f4          	mov    -0xc(%rsp),%eax
  4012b8:	69 c0 f0 4d 00 00    	imul   $0x4df0,%eax,%eax
  4012be:	89 44 24 f4          	mov    %eax,-0xc(%rsp)
  4012c2:	8b 44 24 d4          	mov    -0x2c(%rsp),%eax
  4012c6:	69 c0 dd 37 00 00    	imul   $0x37dd,%eax,%eax
  4012cc:	89 44 24 d4          	mov    %eax,-0x2c(%rsp)
  4012d0:	8b 44 24 dc          	mov    -0x24(%rsp),%eax
  4012d4:	69 c0 c6 b3 00 00    	imul   $0xb3c6,%eax,%eax
  4012da:	89 44 24 dc          	mov    %eax,-0x24(%rsp)
  4012de:	8b 44 24 e4          	mov    -0x1c(%rsp),%eax
  4012e2:	69 c0 87 4d 00 00    	imul   $0x4d87,%eax,%eax
  4012e8:	89 44 24 e4          	mov    %eax,-0x1c(%rsp)
  4012ec:	8b 44 24 d0          	mov    -0x30(%rsp),%eax
  4012f0:	69 c0 80 95 00 00    	imul   $0x9580,%eax,%eax
  4012f6:	89 44 24 d0          	mov    %eax,-0x30(%rsp)
  4012fa:	8b 44 24 e8          	mov    -0x18(%rsp),%eax
  4012fe:	69 c0 20 3b 00 00    	imul   $0x3b20,%eax,%eax
  401304:	89 44 24 e8          	mov    %eax,-0x18(%rsp)
  401308:	8b 44 24 d8          	mov    -0x28(%rsp),%eax
  40130c:	69 c0 d8 88 00 00    	imul   $0x88d8,%eax,%eax
  401312:	89 44 24 d8          	mov    %eax,-0x28(%rsp)
  401316:	8b 44 24 f0          	mov    -0x10(%rsp),%eax
  40131a:	69 c0 25 13 00 00    	imul   $0x1325,%eax,%eax
  401320:	89 44 24 f0          	mov    %eax,-0x10(%rsp)
  401324:	8b 44 24 f0          	mov    -0x10(%rsp),%eax
  401328:	69 c0 e3 30 00 00    	imul   $0x30e3,%eax,%eax
  40132e:	89 44 24 f0          	mov    %eax,-0x10(%rsp)
  401332:	8b 44 24 e0          	mov    -0x20(%rsp),%eax
  401336:	69 c0 78 2b 00 00    	imul   $0x2b78,%eax,%eax
  40133c:	89 44 24 e0          	mov    %eax,-0x20(%rsp)
  401340:	8b 44 24 dc          	mov    -0x24(%rsp),%eax
  401344:	69 c0 8a bd 00 00    	imul   $0xbd8a,%eax,%eax
  40134a:	89 44 24 dc          	mov    %eax,-0x24(%rsp)
  40134e:	8b 44 24 f0          	mov    -0x10(%rsp),%eax
  401352:	69 c0 4c 3b 00 00    	imul   $0x3b4c,%eax,%eax
  401358:	89 44 24 f0          	mov    %eax,-0x10(%rsp)
  40135c:	8b 44 24 ec          	mov    -0x14(%rsp),%eax
  401360:	69 c0 86 ff 00 00    	imul   $0xff86,%eax,%eax
  401366:	89 44 24 ec          	mov    %eax,-0x14(%rsp)
  40136a:	8b 44 24 ec          	mov    -0x14(%rsp),%eax
  40136e:	69 c0 ff 7a 00 00    	imul   $0x7aff,%eax,%eax
  401374:	89 44 24 ec          	mov    %eax,-0x14(%rsp)
  401378:	8b 44 24 dc          	mov    -0x24(%rsp),%eax
  40137c:	69 c0 2c 3c 00 00    	imul   $0x3c2c,%eax,%eax
  401382:	89 44 24 dc          	mov    %eax,-0x24(%rsp)
  401386:	8b 44 24 e0          	mov    -0x20(%rsp),%eax
  40138a:	69 c0 f6 02 00 00    	imul   $0x2f6,%eax,%eax
  401390:	89 44 24 e0          	mov    %eax,-0x20(%rsp)
  401394:	8b 44 24 dc          	mov    -0x24(%rsp),%eax
  401398:	69 c0 c6 e0 00 00    	imul   $0xe0c6,%eax,%eax
  40139e:	89 44 24 dc          	mov    %eax,-0x24(%rsp)
  4013a2:	8b 44 24 f0          	mov    -0x10(%rsp),%eax
  4013a6:	69 c0 bd 3e 00 00    	imul   $0x3ebd,%eax,%eax
  4013ac:	89 44 24 f0          	mov    %eax,-0x10(%rsp)
  4013b0:	8b 44 24 d8          	mov    -0x28(%rsp),%eax
  4013b4:	69 c0 e2 66 00 00    	imul   $0x66e2,%eax,%eax
  4013ba:	89 44 24 d8          	mov    %eax,-0x28(%rsp)
  4013be:	8b 44 24 d8          	mov    -0x28(%rsp),%eax
  4013c2:	69 c0 6d 22 00 00    	imul   $0x226d,%eax,%eax
  4013c8:	89 44 24 d8          	mov    %eax,-0x28(%rsp)
  4013cc:	8b 44 24 e0          	mov    -0x20(%rsp),%eax
  4013d0:	69 c0 2c 47 00 00    	imul   $0x472c,%eax,%eax
  4013d6:	89 44 24 e0          	mov    %eax,-0x20(%rsp)
  4013da:	8b 44 24 ec          	mov    -0x14(%rsp),%eax
  4013de:	69 c0 6f 69 00 00    	imul   $0x696f,%eax,%eax
  4013e4:	89 44 24 ec          	mov    %eax,-0x14(%rsp)
  4013e8:	8b 44 24 e8          	mov    -0x18(%rsp),%eax
  4013ec:	69 c0 64 71 00 00    	imul   $0x7164,%eax,%eax
  4013f2:	89 44 24 e8          	mov    %eax,-0x18(%rsp)
  4013f6:	8b 44 24 e0          	mov    -0x20(%rsp),%eax
  4013fa:	69 c0 23 33 00 00    	imul   $0x3323,%eax,%eax
  401400:	89 44 24 e0          	mov    %eax,-0x20(%rsp)
  401404:	8b 44 24 dc          	mov    -0x24(%rsp),%eax
  401408:	69 c0 d7 98 00 00    	imul   $0x98d7,%eax,%eax
  40140e:	89 44 24 dc          	mov    %eax,-0x24(%rsp)
  401412:	8b 44 24 e4          	mov    -0x1c(%rsp),%eax
  401416:	69 c0 64 16 00 00    	imul   $0x1664,%eax,%eax
  40141c:	89 44 24 e4          	mov    %eax,-0x1c(%rsp)
  401420:	8b 44 24 e0          	mov    -0x20(%rsp),%eax
  401424:	69 c0 d7 ca 00 00    	imul   $0xcad7,%eax,%eax
  40142a:	89 44 24 e0          	mov    %eax,-0x20(%rsp)
  40142e:	8b 44 24 ec          	mov    -0x14(%rsp),%eax
  401432:	69 c0 4a 81 00 00    	imul   $0x814a,%eax,%eax
  401438:	89 44 24 ec          	mov    %eax,-0x14(%rsp)
  40143c:	8b 44 24 ec          	mov    -0x14(%rsp),%eax
  401440:	69 c0 da 5f 00 00    	imul   $0x5fda,%eax,%eax
  401446:	89 44 24 ec          	mov    %eax,-0x14(%rsp)
  40144a:	8b 44 24 d8          	mov    -0x28(%rsp),%eax
  40144e:	69 c0 68 9c 00 00    	imul   $0x9c68,%eax,%eax
  401454:	89 44 24 d8          	mov    %eax,-0x28(%rsp)
  401458:	8b 44 24 e0          	mov    -0x20(%rsp),%eax
  40145c:	69 c0 92 af 00 00    	imul   $0xaf92,%eax,%eax
  401462:	89 44 24 e0          	mov    %eax,-0x20(%rsp)
  401466:	8b 44 24 e8          	mov    -0x18(%rsp),%eax
  40146a:	69 c0 22 26 00 00    	imul   $0x2622,%eax,%eax
  401470:	89 44 24 e8          	mov    %eax,-0x18(%rsp)
  401474:	8b 44 24 e4          	mov    -0x1c(%rsp),%eax
  401478:	69 c0 31 da 00 00    	imul   $0xda31,%eax,%eax
  40147e:	89 44 24 e4          	mov    %eax,-0x1c(%rsp)
  401482:	8b 44 24 e8          	mov    -0x18(%rsp),%eax
  401486:	69 c0 e4 24 00 00    	imul   $0x24e4,%eax,%eax
  40148c:	89 44 24 e8          	mov    %eax,-0x18(%rsp)
  401490:	8b 44 24 d0          	mov    -0x30(%rsp),%eax
  401494:	69 c0 23 f1 00 00    	imul   $0xf123,%eax,%eax
  40149a:	89 44 24 d0          	mov    %eax,-0x30(%rsp)
  40149e:	8b 44 24 d8          	mov    -0x28(%rsp),%eax
  4014a2:	69 c0 76 3d 00 00    	imul   $0x3d76,%eax,%eax
  4014a8:	89 44 24 d8          	mov    %eax,-0x28(%rsp)
  4014ac:	8b 44 24 d4          	mov    -0x2c(%rsp),%eax
  4014b0:	69 c0 e0 a4 00 00    	imul   $0xa4e0,%eax,%eax
  4014b6:	89 44 24 d4          	mov    %eax,-0x2c(%rsp)
  4014ba:	8b 44 24 d8          	mov    -0x28(%rsp),%eax
  4014be:	69 c0 55 08 00 00    	imul   $0x855,%eax,%eax
  4014c4:	89 44 24 d8          	mov    %eax,-0x28(%rsp)
  4014c8:	8b 44 24 e8          	mov    -0x18(%rsp),%eax
  4014cc:	69 c0 7a 23 00 00    	imul   $0x237a,%eax,%eax
  4014d2:	89 44 24 e8          	mov    %eax,-0x18(%rsp)
  4014d6:	8b 44 24 dc          	mov    -0x24(%rsp),%eax
  4014da:	69 c0 8c b8 00 00    	imul   $0xb88c,%eax,%eax
  4014e0:	89 44 24 dc          	mov    %eax,-0x24(%rsp)
  4014e4:	8b 44 24 f4          	mov    -0xc(%rsp),%eax
  4014e8:	69 c0 13 9a 00 00    	imul   $0x9a13,%eax,%eax
  4014ee:	89 44 24 f4          	mov    %eax,-0xc(%rsp)
  4014f2:	8b 44 24 f0          	mov    -0x10(%rsp),%eax
  4014f6:	69 c0 b2 12 00 00    	imul   $0x12b2,%eax,%eax
  4014fc:	89 44 24 f0          	mov    %eax,-0x10(%rsp)
  401500:	8b 44 24 e8          	mov    -0x18(%rsp),%eax
  401504:	69 c0 a1 20 00 00    	imul   $0x20a1,%eax,%eax
  40150a:	89 44 24 e8          	mov    %eax,-0x18(%rsp)
  40150e:	8b 44 24 ec          	mov    -0x14(%rsp),%eax
  401512:	69 c0 47 2f 00 00    	imul   $0x2f47,%eax,%eax
  401518:	89 44 24 ec          	mov    %eax,-0x14(%rsp)
  40151c:	8b 44 24 e4          	mov    -0x1c(%rsp),%eax
  401520:	69 c0 46 90 00 00    	imul   $0x9046,%eax,%eax
  401526:	89 44 24 e4          	mov    %eax,-0x1c(%rsp)
  40152a:	8b 44 24 f0          	mov    -0x10(%rsp),%eax
  40152e:	69 c0 81 1c 00 00    	imul   $0x1c81,%eax,%eax
  401534:	89 44 24 f0          	mov    %eax,-0x10(%rsp)
  401538:	8b 44 24 ec          	mov    -0x14(%rsp),%eax
  40153c:	69 c0 0d 6b 00 00    	imul   $0x6b0d,%eax,%eax
  401542:	89 44 24 ec          	mov    %eax,-0x14(%rsp)
  401546:	8b 44 24 d4          	mov    -0x2c(%rsp),%eax
  40154a:	69 c0 31 d0 00 00    	imul   $0xd031,%eax,%eax
  401550:	89 44 24 d4          	mov    %eax,-0x2c(%rsp)
  401554:	8b 44 24 d4          	mov    -0x2c(%rsp),%eax
  401558:	69 c0 82 a7 00 00    	imul   $0xa782,%eax,%eax
  40155e:	89 44 24 d4          	mov    %eax,-0x2c(%rsp)
  401562:	8b 44 24 d8          	mov    -0x28(%rsp),%eax
  401566:	69 c0 53 86 00 00    	imul   $0x8653,%eax,%eax
  40156c:	89 44 24 d8          	mov    %eax,-0x28(%rsp)
  401570:	8b 44 24 ec          	mov    -0x14(%rsp),%eax
  401574:	69 c0 67 3c 00 00    	imul   $0x3c67,%eax,%eax
  40157a:	89 44 24 ec          	mov    %eax,-0x14(%rsp)
  40157e:	8b 44 24 ec          	mov    -0x14(%rsp),%eax
  401582:	69 c0 f6 d0 00 00    	imul   $0xd0f6,%eax,%eax
  401588:	89 44 24 ec          	mov    %eax,-0x14(%rsp)
  40158c:	8b 44 24 ec          	mov    -0x14(%rsp),%eax
  401590:	69 c0 af 6a 00 00    	imul   $0x6aaf,%eax,%eax
  401596:	89 44 24 ec          	mov    %eax,-0x14(%rsp)
  40159a:	8b 44 24 ec          	mov    -0x14(%rsp),%eax
  40159e:	69 c0 8c f7 00 00    	imul   $0xf78c,%eax,%eax
  4015a4:	89 44 24 ec          	mov    %eax,-0x14(%rsp)
  4015a8:	8b 44 24 d0          	mov    -0x30(%rsp),%eax
  4015ac:	69 c0 c3 14 00 00    	imul   $0x14c3,%eax,%eax
  4015b2:	89 44 24 d0          	mov    %eax,-0x30(%rsp)
  4015b6:	8b 44 24 e0          	mov    -0x20(%rsp),%eax
  4015ba:	69 c0 7a 4a 00 00    	imul   $0x4a7a,%eax,%eax
  4015c0:	89 44 24 e0          	mov    %eax,-0x20(%rsp)
  4015c4:	8b 44 24 d8          	mov    -0x28(%rsp),%eax
  4015c8:	69 c0 09 7f 00 00    	imul   $0x7f09,%eax,%eax
  4015ce:	89 44 24 d8          	mov    %eax,-0x28(%rsp)
  4015d2:	8b 44 24 e4          	mov    -0x1c(%rsp),%eax
  4015d6:	69 c0 c1 13 00 00    	imul   $0x13c1,%eax,%eax
  4015dc:	89 44 24 e4          	mov    %eax,-0x1c(%rsp)
  4015e0:	8b 44 24 d8          	mov    -0x28(%rsp),%eax
  4015e4:	69 c0 29 f1 00 00    	imul   $0xf129,%eax,%eax
  4015ea:	89 44 24 d8          	mov    %eax,-0x28(%rsp)
  4015ee:	8b 44 24 ec          	mov    -0x14(%rsp),%eax
  4015f2:	69 c0 26 20 00 00    	imul   $0x2026,%eax,%eax
  4015f8:	89 44 24 ec          	mov    %eax,-0x14(%rsp)
  4015fc:	8b 44 24 d8          	mov    -0x28(%rsp),%eax
  401600:	69 c0 b8 0e 00 00    	imul   $0xeb8,%eax,%eax
  401606:	89 44 24 d8          	mov    %eax,-0x28(%rsp)
  40160a:	8b 44 24 d4          	mov    -0x2c(%rsp),%eax
  40160e:	69 c0 47 c1 00 00    	imul   $0xc147,%eax,%eax
  401614:	89 44 24 d4          	mov    %eax,-0x2c(%rsp)
  401618:	8b 44 24 d8          	mov    -0x28(%rsp),%eax
  40161c:	69 c0 4b 7f 00 00    	imul   $0x7f4b,%eax,%eax
  401622:	89 44 24 d8          	mov    %eax,-0x28(%rsp)
  401626:	8b 44 24 f0          	mov    -0x10(%rsp),%eax
  40162a:	69 c0 04 bf 00 00    	imul   $0xbf04,%eax,%eax
  401630:	89 44 24 f0          	mov    %eax,-0x10(%rsp)
  401634:	8b 44 24 f4          	mov    -0xc(%rsp),%eax
  401638:	69 c0 8e 86 00 00    	imul   $0x868e,%eax,%eax
  40163e:	89 44 24 f4          	mov    %eax,-0xc(%rsp)
  401642:	8b 44 24 ec          	mov    -0x14(%rsp),%eax
  401646:	69 c0 74 bf 00 00    	imul   $0xbf74,%eax,%eax
  40164c:	89 44 24 ec          	mov    %eax,-0x14(%rsp)
  401650:	8b 44 24 f0          	mov    -0x10(%rsp),%eax
  401654:	69 c0 21 09 00 00    	imul   $0x921,%eax,%eax
  40165a:	89 44 24 f0          	mov    %eax,-0x10(%rsp)
  40165e:	8b 44 24 f0          	mov    -0x10(%rsp),%eax
  401662:	69 c0 3d a4 00 00    	imul   $0xa43d,%eax,%eax
  401668:	89 44 24 f0          	mov    %eax,-0x10(%rsp)
  40166c:	8b 44 24 ec          	mov    -0x14(%rsp),%eax
  401670:	69 c0 b5 69 00 00    	imul   $0x69b5,%eax,%eax
  401676:	89 44 24 ec          	mov    %eax,-0x14(%rsp)
  40167a:	8b 44 24 d0          	mov    -0x30(%rsp),%eax
  40167e:	69 c0 f9 01 00 00    	imul   $0x1f9,%eax,%eax
  401684:	89 44 24 d0          	mov    %eax,-0x30(%rsp)
  401688:	8b 44 24 f4          	mov    -0xc(%rsp),%eax
  40168c:	69 c0 e1 4b 00 00    	imul   $0x4be1,%eax,%eax
  401692:	89 44 24 f4          	mov    %eax,-0xc(%rsp)
  401696:	8b 44 24 ec          	mov    -0x14(%rsp),%eax
  40169a:	69 c0 4e 2d 00 00    	imul   $0x2d4e,%eax,%eax
  4016a0:	89 44 24 ec          	mov    %eax,-0x14(%rsp)
  4016a4:	8b 44 24 ec          	mov    -0x14(%rsp),%eax
  4016a8:	69 c0 9f a9 00 00    	imul   $0xa99f,%eax,%eax
  4016ae:	89 44 24 ec          	mov    %eax,-0x14(%rsp)
  4016b2:	8b 44 24 e0          	mov    -0x20(%rsp),%eax
  4016b6:	69 c0 96 6a 00 00    	imul   $0x6a96,%eax,%eax
  4016bc:	89 44 24 e0          	mov    %eax,-0x20(%rsp)
  4016c0:	ba 00 00 00 00       	mov    $0x0,%edx
  4016c5:	b8 00 00 00 00       	mov    $0x0,%eax
  4016ca:	89 d1                	mov    %edx,%ecx
  4016cc:	8b 4c 8c d0          	mov    -0x30(%rsp,%rcx,4),%ecx
  4016d0:	01 c8                	add    %ecx,%eax
  4016d2:	83 c2 01             	add    $0x1,%edx
  4016d5:	83 fa 0a             	cmp    $0xa,%edx
  4016d8:	75 f0                	jne    4016ca <scramble+0x42f>
  4016da:	f3 c3                	repz retq 

00000000004016dc <getbuf>:	// i think whoever calls getbuf is at 0x5566fd78 + 0x38
  4016dc:	48 83 ec 38          	sub    $0x38,%rsp
  4016e0:	48 89 e7             	mov    %rsp,%rdi // rdi is at 4016a4(?_
  									// but looking at assembly, rsp is 0x5566fd78
  4016e3:	e8 c1 01 00 00       	callq  4018a9 <Gets>
  4016e8:	b8 01 00 00 00       	mov    $0x1,%eax
  4016ed:	48 83 c4 38          	add    $0x38,%rsp
  4016f1:	c3                   	retq   

00000000004016f2 <touch1>:
  4016f2:	48 83 ec 08          	sub    $0x8,%rsp
  4016f6:	c7 05 fc 2d 20 00 01 	movl   $0x1,0x202dfc(%rip)        # 6044fc <vlevel>
  4016fd:	00 00 00 
  401700:	bf cd 2f 40 00       	mov    $0x402fcd,%edi
  401705:	e8 46 f5 ff ff       	callq  400c50 <puts@plt>
  40170a:	bf 01 00 00 00       	mov    $0x1,%edi
  40170f:	e8 1c 04 00 00       	callq  401b30 <validate>
  401714:	bf 00 00 00 00       	mov    $0x0,%edi
  401719:	e8 d2 f6 ff ff       	callq  400df0 <exit@plt>

000000000040171e <touch2>:
  40171e:	48 83 ec 08          	sub    $0x8,%rsp
  401722:	89 fe                	mov    %edi,%esi
  401724:	c7 05 ce 2d 20 00 02 	movl   $0x2,0x202dce(%rip)        # 6044fc <vlevel>
  40172b:	00 00 00 
  40172e:	3b 3d d0 2d 20 00    	cmp    0x202dd0(%rip),%edi        # 604504 <cookie>
  401734:	75 1b                	jne    401751 <touch2+0x33>
  401736:	bf f0 2f 40 00       	mov    $0x402ff0,%edi
  40173b:	b8 00 00 00 00       	mov    $0x0,%eax
  401740:	e8 3b f5 ff ff       	callq  400c80 <printf@plt>
  401745:	bf 02 00 00 00       	mov    $0x2,%edi
  40174a:	e8 e1 03 00 00       	callq  401b30 <validate>
  40174f:	eb 19                	jmp    40176a <touch2+0x4c>
  401751:	bf 18 30 40 00       	mov    $0x403018,%edi
  401756:	b8 00 00 00 00       	mov    $0x0,%eax
  40175b:	e8 20 f5 ff ff       	callq  400c80 <printf@plt>
  401760:	bf 02 00 00 00       	mov    $0x2,%edi
  401765:	e8 82 04 00 00       	callq  401bec <fail>
  40176a:	bf 00 00 00 00       	mov    $0x0,%edi
  40176f:	e8 7c f6 ff ff       	callq  400df0 <exit@plt>

0000000000401774 <hexmatch>:
  401774:	41 54                	push   %r12
  401776:	55                   	push   %rbp
  401777:	53                   	push   %rbx
  401778:	48 83 ec 70          	sub    $0x70,%rsp
  40177c:	41 89 fc             	mov    %edi,%r12d
  40177f:	48 89 f5             	mov    %rsi,%rbp
  401782:	e8 c9 f5 ff ff       	callq  400d50 <random@plt>
  401787:	48 89 c1             	mov    %rax,%rcx
  40178a:	48 ba 0b d7 a3 70 3d 	movabs $0xa3d70a3d70a3d70b,%rdx
  401791:	0a d7 a3 
  401794:	48 f7 ea             	imul   %rdx
  401797:	48 8d 04 0a          	lea    (%rdx,%rcx,1),%rax
  40179b:	48 c1 f8 06          	sar    $0x6,%rax
  40179f:	48 89 ce             	mov    %rcx,%rsi
  4017a2:	48 c1 fe 3f          	sar    $0x3f,%rsi
  4017a6:	48 29 f0             	sub    %rsi,%rax
  4017a9:	48 8d 04 80          	lea    (%rax,%rax,4),%rax
  4017ad:	48 8d 04 80          	lea    (%rax,%rax,4),%rax
  4017b1:	48 c1 e0 02          	shl    $0x2,%rax
  4017b5:	48 29 c1             	sub    %rax,%rcx
  4017b8:	48 8d 1c 0c          	lea    (%rsp,%rcx,1),%rbx
  4017bc:	44 89 e2             	mov    %r12d,%edx
  4017bf:	be ea 2f 40 00       	mov    $0x402fea,%esi
  4017c4:	48 89 df             	mov    %rbx,%rdi
  4017c7:	b8 00 00 00 00       	mov    $0x0,%eax
  4017cc:	e8 0f f6 ff ff       	callq  400de0 <sprintf@plt>
  4017d1:	ba 09 00 00 00       	mov    $0x9,%edx
  4017d6:	48 89 de             	mov    %rbx,%rsi
  4017d9:	48 89 ef             	mov    %rbp,%rdi
  4017dc:	e8 4f f4 ff ff       	callq  400c30 <strncmp@plt>
  4017e1:	85 c0                	test   %eax,%eax
  4017e3:	0f 94 c0             	sete   %al
  4017e6:	0f b6 c0             	movzbl %al,%eax
  4017e9:	48 83 c4 70          	add    $0x70,%rsp
  4017ed:	5b                   	pop    %rbx
  4017ee:	5d                   	pop    %rbp
  4017ef:	41 5c                	pop    %r12
  4017f1:	c3                   	retq   

00000000004017f2 <touch3>:
  4017f2:	53                   	push   %rbx
  4017f3:	48 89 fb             	mov    %rdi,%rbx
  4017f6:	c7 05 fc 2c 20 00 03 	movl   $0x3,0x202cfc(%rip)        # 6044fc <vlevel>
  4017fd:	00 00 00 
  401800:	48 89 fe             	mov    %rdi,%rsi
  401803:	8b 3d fb 2c 20 00    	mov    0x202cfb(%rip),%edi        # 604504 <cookie>
  401809:	e8 66 ff ff ff       	callq  401774 <hexmatch>
  40180e:	85 c0                	test   %eax,%eax
  401810:	74 1e                	je     401830 <touch3+0x3e>
  401812:	48 89 de             	mov    %rbx,%rsi
  401815:	bf 40 30 40 00       	mov    $0x403040,%edi
  40181a:	b8 00 00 00 00       	mov    $0x0,%eax
  40181f:	e8 5c f4 ff ff       	callq  400c80 <printf@plt>
  401824:	bf 03 00 00 00       	mov    $0x3,%edi
  401829:	e8 02 03 00 00       	callq  401b30 <validate>
  40182e:	eb 1c                	jmp    40184c <touch3+0x5a>
  401830:	48 89 de             	mov    %rbx,%rsi
  401833:	bf 68 30 40 00       	mov    $0x403068,%edi
  401838:	b8 00 00 00 00       	mov    $0x0,%eax
  40183d:	e8 3e f4 ff ff       	callq  400c80 <printf@plt>
  401842:	bf 03 00 00 00       	mov    $0x3,%edi
  401847:	e8 a0 03 00 00       	callq  401bec <fail>
  40184c:	bf 00 00 00 00       	mov    $0x0,%edi
  401851:	e8 9a f5 ff ff       	callq  400df0 <exit@plt>

0000000000401856 <test>:
  401856:	48 83 ec 08          	sub    $0x8,%rsp
  40185a:	b8 00 00 00 00       	mov    $0x0,%eax
  40185f:	e8 78 fe ff ff       	callq  4016dc <getbuf>
  401864:	89 c6                	mov    %eax,%esi
  401866:	bf 90 30 40 00       	mov    $0x403090,%edi
  40186b:	b8 00 00 00 00       	mov    $0x0,%eax
  401870:	e8 0b f4 ff ff       	callq  400c80 <printf@plt>
  401875:	48 83 c4 08          	add    $0x8,%rsp
  401879:	c3                   	retq   

000000000040187a <check_fail>:
  40187a:	48 83 ec 08          	sub    $0x8,%rsp
  40187e:	0f be 35 a3 38 20 00 	movsbl 0x2038a3(%rip),%esi        # 605128 <target_prefix>
  401885:	b9 20 45 60 00       	mov    $0x604520,%ecx
  40188a:	8b 15 68 2c 20 00    	mov    0x202c68(%rip),%edx        # 6044f8 <check_level>
  401890:	bf b3 30 40 00       	mov    $0x4030b3,%edi
  401895:	b8 00 00 00 00       	mov    $0x0,%eax
  40189a:	e8 e1 f3 ff ff       	callq  400c80 <printf@plt>
  40189f:	bf 01 00 00 00       	mov    $0x1,%edi
  4018a4:	e8 47 f5 ff ff       	callq  400df0 <exit@plt>

00000000004018a9 <Gets>:
  4018a9:	55                   	push   %rbp
  4018aa:	53                   	push   %rbx
  4018ab:	48 83 ec 08          	sub    $0x8,%rsp
  4018af:	48 89 fd             	mov    %rdi,%rbp
  4018b2:	c7 05 68 38 20 00 00 	movl   $0x0,0x203868(%rip)        # 605124 <gets_cnt>
  4018b9:	00 00 00 
  4018bc:	48 89 fb             	mov    %rdi,%rbx
  4018bf:	eb 5f                	jmp    401920 <Gets+0x77>
  4018c1:	48 83 c3 01          	add    $0x1,%rbx
  4018c5:	88 43 ff             	mov    %al,-0x1(%rbx)
  4018c8:	8b 0d 56 38 20 00    	mov    0x203856(%rip),%ecx        # 605124 <gets_cnt>
  4018ce:	81 f9 ff 03 00 00    	cmp    $0x3ff,%ecx
  4018d4:	7f 4a                	jg     401920 <Gets+0x77>
  4018d6:	0f b6 d0             	movzbl %al,%edx
  4018d9:	8d 34 49             	lea    (%rcx,%rcx,2),%esi
  4018dc:	48 63 c6             	movslq %esi,%rax
  4018df:	89 d7                	mov    %edx,%edi
  4018e1:	c1 ef 04             	shr    $0x4,%edi
  4018e4:	48 63 ff             	movslq %edi,%rdi
  4018e7:	0f b6 bf b0 33 40 00 	movzbl 0x4033b0(%rdi),%edi
  4018ee:	40 88 b8 20 45 60 00 	mov    %dil,0x604520(%rax)
  4018f5:	8d 46 01             	lea    0x1(%rsi),%eax
  4018f8:	48 98                	cltq   
  4018fa:	83 e2 0f             	and    $0xf,%edx
  4018fd:	0f b6 92 b0 33 40 00 	movzbl 0x4033b0(%rdx),%edx
  401904:	88 90 20 45 60 00    	mov    %dl,0x604520(%rax)
  40190a:	83 c6 02             	add    $0x2,%esi
  40190d:	48 63 f6             	movslq %esi,%rsi
  401910:	c6 86 20 45 60 00 20 	movb   $0x20,0x604520(%rsi)
  401917:	83 c1 01             	add    $0x1,%ecx
  40191a:	89 0d 04 38 20 00    	mov    %ecx,0x203804(%rip)        # 605124 <gets_cnt>
  401920:	48 8b 3d c9 2b 20 00 	mov    0x202bc9(%rip),%rdi        # 6044f0 <infile>
  401927:	e8 34 f4 ff ff       	callq  400d60 <_IO_getc@plt>
  40192c:	83 f8 ff             	cmp    $0xffffffff,%eax
  40192f:	74 05                	je     401936 <Gets+0x8d>
  401931:	83 f8 0a             	cmp    $0xa,%eax
  401934:	75 8b                	jne    4018c1 <Gets+0x18>
  401936:	c6 03 00             	movb   $0x0,(%rbx)
  401939:	8b 05 e5 37 20 00    	mov    0x2037e5(%rip),%eax        # 605124 <gets_cnt>
  40193f:	8d 04 40             	lea    (%rax,%rax,2),%eax
  401942:	48 98                	cltq   
  401944:	c6 80 20 45 60 00 00 	movb   $0x0,0x604520(%rax)
  40194b:	48 89 e8             	mov    %rbp,%rax
  40194e:	48 83 c4 08          	add    $0x8,%rsp
  401952:	5b                   	pop    %rbx
  401953:	5d                   	pop    %rbp
  401954:	c3                   	retq   

0000000000401955 <notify_server>:
  401955:	83 3d ac 2b 20 00 00 	cmpl   $0x0,0x202bac(%rip)        # 604508 <is_checker>
  40195c:	0f 85 cc 01 00 00    	jne    401b2e <notify_server+0x1d9>
  401962:	48 81 ec 18 40 00 00 	sub    $0x4018,%rsp
  401969:	8b 05 b5 37 20 00    	mov    0x2037b5(%rip),%eax        # 605124 <gets_cnt>
  40196f:	83 c0 64             	add    $0x64,%eax
  401972:	3d 00 20 00 00       	cmp    $0x2000,%eax
  401977:	7e 19                	jle    401992 <notify_server+0x3d>
  401979:	bf e8 31 40 00       	mov    $0x4031e8,%edi
  40197e:	b8 00 00 00 00       	mov    $0x0,%eax
  401983:	e8 f8 f2 ff ff       	callq  400c80 <printf@plt>
  401988:	bf 01 00 00 00       	mov    $0x1,%edi
  40198d:	e8 5e f4 ff ff       	callq  400df0 <exit@plt>
  401992:	44 0f be 0d 8e 37 20 	movsbl 0x20378e(%rip),%r9d        # 605128 <target_prefix>
  401999:	00 
  40199a:	83 3d 07 2b 20 00 00 	cmpl   $0x0,0x202b07(%rip)        # 6044a8 <notify>
  4019a1:	b8 ff ff ff ff       	mov    $0xffffffff,%eax
  4019a6:	0f 45 05 53 2b 20 00 	cmovne 0x202b53(%rip),%eax        # 604500 <authkey>
  4019ad:	41 89 c0             	mov    %eax,%r8d
  4019b0:	85 ff                	test   %edi,%edi
  4019b2:	0f 85 f0 00 00 00    	jne    401aa8 <notify_server+0x153>
  4019b8:	e9 a9 00 00 00       	jmpq   401a66 <notify_server+0x111>
  4019bd:	48 8d 74 24 10       	lea    0x10(%rsp),%rsi
  4019c2:	bf d3 30 40 00       	mov    $0x4030d3,%edi
  4019c7:	b8 00 00 00 00       	mov    $0x0,%eax
  4019cc:	e8 af f2 ff ff       	callq  400c80 <printf@plt>
  4019d1:	bf 01 00 00 00       	mov    $0x1,%edi
  4019d6:	e8 15 f4 ff ff       	callq  400df0 <exit@plt>
  4019db:	bf 18 32 40 00       	mov    $0x403218,%edi
  4019e0:	e8 6b f2 ff ff       	callq  400c50 <puts@plt>
  4019e5:	bf df 30 40 00       	mov    $0x4030df,%edi
  4019ea:	e8 61 f2 ff ff       	callq  400c50 <puts@plt>
  4019ef:	e9 33 01 00 00       	jmpq   401b27 <notify_server+0x1d2>
  4019f4:	be c9 30 40 00       	mov    $0x4030c9,%esi
  4019f9:	bf 50 32 40 00       	mov    $0x403250,%edi
  4019fe:	b8 00 00 00 00       	mov    $0x0,%eax
  401a03:	e8 78 f2 ff ff       	callq  400c80 <printf@plt>
  401a08:	48 8b 35 51 27 20 00 	mov    0x202751(%rip),%rsi        # 604160 <user_id>
  401a0f:	bf e9 30 40 00       	mov    $0x4030e9,%edi
  401a14:	b8 00 00 00 00       	mov    $0x0,%eax
  401a19:	e8 62 f2 ff ff       	callq  400c80 <printf@plt>
  401a1e:	48 8b 35 53 27 20 00 	mov    0x202753(%rip),%rsi        # 604178 <course>
  401a25:	bf f6 30 40 00       	mov    $0x4030f6,%edi
  401a2a:	b8 00 00 00 00       	mov    $0x0,%eax
  401a2f:	e8 4c f2 ff ff       	callq  400c80 <printf@plt>
  401a34:	48 8b 35 35 27 20 00 	mov    0x202735(%rip),%rsi        # 604170 <lab>
  401a3b:	bf 02 31 40 00       	mov    $0x403102,%edi
  401a40:	b8 00 00 00 00       	mov    $0x0,%eax
  401a45:	e8 36 f2 ff ff       	callq  400c80 <printf@plt>
  401a4a:	48 8d b4 24 10 20 00 	lea    0x2010(%rsp),%rsi
  401a51:	00 
  401a52:	bf 0b 31 40 00       	mov    $0x40310b,%edi
  401a57:	b8 00 00 00 00       	mov    $0x0,%eax
  401a5c:	e8 1f f2 ff ff       	callq  400c80 <printf@plt>
  401a61:	e9 c1 00 00 00       	jmpq   401b27 <notify_server+0x1d2>
  401a66:	48 c7 44 24 08 20 45 	movq   $0x604520,0x8(%rsp)
  401a6d:	60 00 
  401a6f:	89 34 24             	mov    %esi,(%rsp)
  401a72:	b9 ce 30 40 00       	mov    $0x4030ce,%ecx
  401a77:	8b 15 eb 26 20 00    	mov    0x2026eb(%rip),%edx        # 604168 <target_id>
  401a7d:	be 17 31 40 00       	mov    $0x403117,%esi
  401a82:	48 8d bc 24 10 20 00 	lea    0x2010(%rsp),%rdi
  401a89:	00 
  401a8a:	b8 00 00 00 00       	mov    $0x0,%eax
  401a8f:	e8 4c f3 ff ff       	callq  400de0 <sprintf@plt>
  401a94:	be ce 30 40 00       	mov    $0x4030ce,%esi
  401a99:	83 3d 08 2a 20 00 00 	cmpl   $0x0,0x202a08(%rip)        # 6044a8 <notify>
  401aa0:	0f 84 53 ff ff ff    	je     4019f9 <notify_server+0xa4>
  401aa6:	eb 75                	jmp    401b1d <notify_server+0x1c8>
  401aa8:	48 c7 44 24 08 20 45 	movq   $0x604520,0x8(%rsp)
  401aaf:	60 00 
  401ab1:	89 34 24             	mov    %esi,(%rsp)
  401ab4:	b9 c9 30 40 00       	mov    $0x4030c9,%ecx
  401ab9:	8b 15 a9 26 20 00    	mov    0x2026a9(%rip),%edx        # 604168 <target_id>
  401abf:	be 17 31 40 00       	mov    $0x403117,%esi
  401ac4:	48 8d bc 24 10 20 00 	lea    0x2010(%rsp),%rdi
  401acb:	00 
  401acc:	b8 00 00 00 00       	mov    $0x0,%eax
  401ad1:	e8 0a f3 ff ff       	callq  400de0 <sprintf@plt>
  401ad6:	83 3d cb 29 20 00 00 	cmpl   $0x0,0x2029cb(%rip)        # 6044a8 <notify>
  401add:	0f 84 11 ff ff ff    	je     4019f4 <notify_server+0x9f>
  401ae3:	4c 8d 4c 24 10       	lea    0x10(%rsp),%r9
  401ae8:	41 b8 00 00 00 00    	mov    $0x0,%r8d
  401aee:	48 8d 8c 24 10 20 00 	lea    0x2010(%rsp),%rcx
  401af5:	00 
  401af6:	48 8b 15 73 26 20 00 	mov    0x202673(%rip),%rdx        # 604170 <lab>
  401afd:	48 8b 35 74 26 20 00 	mov    0x202674(%rip),%rsi        # 604178 <course>
  401b04:	48 8b 3d 55 26 20 00 	mov    0x202655(%rip),%rdi        # 604160 <user_id>
  401b0b:	e8 13 0f 00 00       	callq  402a23 <driver_post>
  401b10:	85 c0                	test   %eax,%eax
  401b12:	0f 89 c3 fe ff ff    	jns    4019db <notify_server+0x86>
  401b18:	e9 a0 fe ff ff       	jmpq   4019bd <notify_server+0x68>
  401b1d:	bf 33 31 40 00       	mov    $0x403133,%edi
  401b22:	e8 29 f1 ff ff       	callq  400c50 <puts@plt>
  401b27:	48 81 c4 18 40 00 00 	add    $0x4018,%rsp
  401b2e:	f3 c3                	repz retq 

0000000000401b30 <validate>:
  401b30:	55                   	push   %rbp
  401b31:	53                   	push   %rbx
  401b32:	48 83 ec 08          	sub    $0x8,%rsp
  401b36:	89 fb                	mov    %edi,%ebx
  401b38:	83 3d c9 29 20 00 00 	cmpl   $0x0,0x2029c9(%rip)        # 604508 <is_checker>
  401b3f:	74 5e                	je     401b9f <validate+0x6f>
  401b41:	8b 15 b5 29 20 00    	mov    0x2029b5(%rip),%edx        # 6044fc <vlevel>
  401b47:	39 fa                	cmp    %edi,%edx
  401b49:	74 14                	je     401b5f <validate+0x2f>
  401b4b:	bf 3a 31 40 00       	mov    $0x40313a,%edi
  401b50:	e8 fb f0 ff ff       	callq  400c50 <puts@plt>
  401b55:	b8 00 00 00 00       	mov    $0x0,%eax
  401b5a:	e8 1b fd ff ff       	callq  40187a <check_fail>
  401b5f:	8b 35 93 29 20 00    	mov    0x202993(%rip),%esi        # 6044f8 <check_level>
  401b65:	39 f2                	cmp    %esi,%edx
  401b67:	74 19                	je     401b82 <validate+0x52>
  401b69:	bf 78 32 40 00       	mov    $0x403278,%edi
  401b6e:	b8 00 00 00 00       	mov    $0x0,%eax
  401b73:	e8 08 f1 ff ff       	callq  400c80 <printf@plt>
  401b78:	b8 00 00 00 00       	mov    $0x0,%eax
  401b7d:	e8 f8 fc ff ff       	callq  40187a <check_fail>
  401b82:	0f be 35 9f 35 20 00 	movsbl 0x20359f(%rip),%esi        # 605128 <target_prefix>
  401b89:	b9 20 45 60 00       	mov    $0x604520,%ecx
  401b8e:	bf 58 31 40 00       	mov    $0x403158,%edi
  401b93:	b8 00 00 00 00       	mov    $0x0,%eax
  401b98:	e8 e3 f0 ff ff       	callq  400c80 <printf@plt>
  401b9d:	eb 46                	jmp    401be5 <validate+0xb5>
  401b9f:	8b 2d 57 29 20 00    	mov    0x202957(%rip),%ebp        # 6044fc <vlevel>
  401ba5:	39 fd                	cmp    %edi,%ebp
  401ba7:	74 18                	je     401bc1 <validate+0x91>
  401ba9:	bf 3a 31 40 00       	mov    $0x40313a,%edi
  401bae:	e8 9d f0 ff ff       	callq  400c50 <puts@plt>
  401bb3:	89 de                	mov    %ebx,%esi
  401bb5:	bf 00 00 00 00       	mov    $0x0,%edi
  401bba:	e8 96 fd ff ff       	callq  401955 <notify_server>
  401bbf:	eb 24                	jmp    401be5 <validate+0xb5>
  401bc1:	0f be 15 60 35 20 00 	movsbl 0x203560(%rip),%edx        # 605128 <target_prefix>
  401bc8:	89 ee                	mov    %ebp,%esi
  401bca:	bf a0 32 40 00       	mov    $0x4032a0,%edi
  401bcf:	b8 00 00 00 00       	mov    $0x0,%eax
  401bd4:	e8 a7 f0 ff ff       	callq  400c80 <printf@plt>
  401bd9:	89 ee                	mov    %ebp,%esi
  401bdb:	bf 01 00 00 00       	mov    $0x1,%edi
  401be0:	e8 70 fd ff ff       	callq  401955 <notify_server>
  401be5:	48 83 c4 08          	add    $0x8,%rsp
  401be9:	5b                   	pop    %rbx
  401bea:	5d                   	pop    %rbp
  401beb:	c3                   	retq   

0000000000401bec <fail>:
  401bec:	48 83 ec 08          	sub    $0x8,%rsp
  401bf0:	83 3d 11 29 20 00 00 	cmpl   $0x0,0x202911(%rip)        # 604508 <is_checker>
  401bf7:	74 0a                	je     401c03 <fail+0x17>
  401bf9:	b8 00 00 00 00       	mov    $0x0,%eax
  401bfe:	e8 77 fc ff ff       	callq  40187a <check_fail>
  401c03:	89 fe                	mov    %edi,%esi
  401c05:	bf 00 00 00 00       	mov    $0x0,%edi
  401c0a:	e8 46 fd ff ff       	callq  401955 <notify_server>
  401c0f:	48 83 c4 08          	add    $0x8,%rsp
  401c13:	c3                   	retq   

0000000000401c14 <bushandler>:
  401c14:	48 83 ec 08          	sub    $0x8,%rsp
  401c18:	83 3d e9 28 20 00 00 	cmpl   $0x0,0x2028e9(%rip)        # 604508 <is_checker>
  401c1f:	74 14                	je     401c35 <bushandler+0x21>
  401c21:	bf 6d 31 40 00       	mov    $0x40316d,%edi
  401c26:	e8 25 f0 ff ff       	callq  400c50 <puts@plt>
  401c2b:	b8 00 00 00 00       	mov    $0x0,%eax
  401c30:	e8 45 fc ff ff       	callq  40187a <check_fail>
  401c35:	bf d8 32 40 00       	mov    $0x4032d8,%edi
  401c3a:	e8 11 f0 ff ff       	callq  400c50 <puts@plt>
  401c3f:	bf 77 31 40 00       	mov    $0x403177,%edi
  401c44:	e8 07 f0 ff ff       	callq  400c50 <puts@plt>
  401c49:	be 00 00 00 00       	mov    $0x0,%esi
  401c4e:	bf 00 00 00 00       	mov    $0x0,%edi
  401c53:	e8 fd fc ff ff       	callq  401955 <notify_server>
  401c58:	bf 01 00 00 00       	mov    $0x1,%edi
  401c5d:	e8 8e f1 ff ff       	callq  400df0 <exit@plt>

0000000000401c62 <seghandler>:
  401c62:	48 83 ec 08          	sub    $0x8,%rsp
  401c66:	83 3d 9b 28 20 00 00 	cmpl   $0x0,0x20289b(%rip)        # 604508 <is_checker>
  401c6d:	74 14                	je     401c83 <seghandler+0x21>
  401c6f:	bf 8d 31 40 00       	mov    $0x40318d,%edi
  401c74:	e8 d7 ef ff ff       	callq  400c50 <puts@plt>
  401c79:	b8 00 00 00 00       	mov    $0x0,%eax
  401c7e:	e8 f7 fb ff ff       	callq  40187a <check_fail>
  401c83:	bf f8 32 40 00       	mov    $0x4032f8,%edi
  401c88:	e8 c3 ef ff ff       	callq  400c50 <puts@plt>
  401c8d:	bf 77 31 40 00       	mov    $0x403177,%edi
  401c92:	e8 b9 ef ff ff       	callq  400c50 <puts@plt>
  401c97:	be 00 00 00 00       	mov    $0x0,%esi
  401c9c:	bf 00 00 00 00       	mov    $0x0,%edi
  401ca1:	e8 af fc ff ff       	callq  401955 <notify_server>
  401ca6:	bf 01 00 00 00       	mov    $0x1,%edi
  401cab:	e8 40 f1 ff ff       	callq  400df0 <exit@plt>

0000000000401cb0 <illegalhandler>:
  401cb0:	48 83 ec 08          	sub    $0x8,%rsp
  401cb4:	83 3d 4d 28 20 00 00 	cmpl   $0x0,0x20284d(%rip)        # 604508 <is_checker>
  401cbb:	74 14                	je     401cd1 <illegalhandler+0x21>
  401cbd:	bf a0 31 40 00       	mov    $0x4031a0,%edi
  401cc2:	e8 89 ef ff ff       	callq  400c50 <puts@plt>
  401cc7:	b8 00 00 00 00       	mov    $0x0,%eax
  401ccc:	e8 a9 fb ff ff       	callq  40187a <check_fail>
  401cd1:	bf 20 33 40 00       	mov    $0x403320,%edi
  401cd6:	e8 75 ef ff ff       	callq  400c50 <puts@plt>
  401cdb:	bf 77 31 40 00       	mov    $0x403177,%edi
  401ce0:	e8 6b ef ff ff       	callq  400c50 <puts@plt>
  401ce5:	be 00 00 00 00       	mov    $0x0,%esi
  401cea:	bf 00 00 00 00       	mov    $0x0,%edi
  401cef:	e8 61 fc ff ff       	callq  401955 <notify_server>
  401cf4:	bf 01 00 00 00       	mov    $0x1,%edi
  401cf9:	e8 f2 f0 ff ff       	callq  400df0 <exit@plt>

0000000000401cfe <sigalrmhandler>:
  401cfe:	48 83 ec 08          	sub    $0x8,%rsp
  401d02:	83 3d ff 27 20 00 00 	cmpl   $0x0,0x2027ff(%rip)        # 604508 <is_checker>
  401d09:	74 14                	je     401d1f <sigalrmhandler+0x21>
  401d0b:	bf b4 31 40 00       	mov    $0x4031b4,%edi
  401d10:	e8 3b ef ff ff       	callq  400c50 <puts@plt>
  401d15:	b8 00 00 00 00       	mov    $0x0,%eax
  401d1a:	e8 5b fb ff ff       	callq  40187a <check_fail>
  401d1f:	be 05 00 00 00       	mov    $0x5,%esi
  401d24:	bf 50 33 40 00       	mov    $0x403350,%edi
  401d29:	b8 00 00 00 00       	mov    $0x0,%eax
  401d2e:	e8 4d ef ff ff       	callq  400c80 <printf@plt>
  401d33:	be 00 00 00 00       	mov    $0x0,%esi
  401d38:	bf 00 00 00 00       	mov    $0x0,%edi
  401d3d:	e8 13 fc ff ff       	callq  401955 <notify_server>
  401d42:	bf 01 00 00 00       	mov    $0x1,%edi
  401d47:	e8 a4 f0 ff ff       	callq  400df0 <exit@plt>

0000000000401d4c <launch>:
  401d4c:	55                   	push   %rbp
  401d4d:	48 89 e5             	mov    %rsp,%rbp
  401d50:	48 89 fa             	mov    %rdi,%rdx
  401d53:	48 8d 47 1e          	lea    0x1e(%rdi),%rax
  401d57:	48 83 e0 f0          	and    $0xfffffffffffffff0,%rax
  401d5b:	48 29 c4             	sub    %rax,%rsp
  401d5e:	48 8d 7c 24 0f       	lea    0xf(%rsp),%rdi
  401d63:	48 83 e7 f0          	and    $0xfffffffffffffff0,%rdi
  401d67:	be f4 00 00 00       	mov    $0xf4,%esi
  401d6c:	e8 1f ef ff ff       	callq  400c90 <memset@plt>
  401d71:	48 8b 05 48 27 20 00 	mov    0x202748(%rip),%rax        # 6044c0 <stdin@@GLIBC_2.2.5>
  401d78:	48 39 05 71 27 20 00 	cmp    %rax,0x202771(%rip)        # 6044f0 <infile>
  401d7f:	75 0f                	jne    401d90 <launch+0x44>
  401d81:	bf bc 31 40 00       	mov    $0x4031bc,%edi
  401d86:	b8 00 00 00 00       	mov    $0x0,%eax
  401d8b:	e8 f0 ee ff ff       	callq  400c80 <printf@plt>
  401d90:	c7 05 62 27 20 00 00 	movl   $0x0,0x202762(%rip)        # 6044fc <vlevel>
  401d97:	00 00 00 
  401d9a:	b8 00 00 00 00       	mov    $0x0,%eax
  401d9f:	e8 b2 fa ff ff       	callq  401856 <test>
  401da4:	83 3d 5d 27 20 00 00 	cmpl   $0x0,0x20275d(%rip)        # 604508 <is_checker>
  401dab:	74 14                	je     401dc1 <launch+0x75>
  401dad:	bf c9 31 40 00       	mov    $0x4031c9,%edi
  401db2:	e8 99 ee ff ff       	callq  400c50 <puts@plt>
  401db7:	b8 00 00 00 00       	mov    $0x0,%eax
  401dbc:	e8 b9 fa ff ff       	callq  40187a <check_fail>
  401dc1:	bf d4 31 40 00       	mov    $0x4031d4,%edi
  401dc6:	e8 85 ee ff ff       	callq  400c50 <puts@plt>
  401dcb:	c9                   	leaveq 
  401dcc:	c3                   	retq   

0000000000401dcd <stable_launch>:
  401dcd:	48 83 ec 08          	sub    $0x8,%rsp
  401dd1:	48 89 3d 10 27 20 00 	mov    %rdi,0x202710(%rip)        # 6044e8 <global_offset>
  401dd8:	41 b9 00 00 00 00    	mov    $0x0,%r9d
  401dde:	41 b8 00 00 00 00    	mov    $0x0,%r8d
  401de4:	b9 32 01 00 00       	mov    $0x132,%ecx
  401de9:	ba 07 00 00 00       	mov    $0x7,%edx
  401dee:	be 00 00 10 00       	mov    $0x100000,%esi
  401df3:	bf 00 60 58 55       	mov    $0x55586000,%edi
  401df8:	e8 73 ee ff ff       	callq  400c70 <mmap@plt>
  401dfd:	48 3d 00 60 58 55    	cmp    $0x55586000,%rax
  401e03:	74 32                	je     401e37 <stable_launch+0x6a>
  401e05:	be 00 00 10 00       	mov    $0x100000,%esi
  401e0a:	48 89 c7             	mov    %rax,%rdi
  401e0d:	e8 6e ef ff ff       	callq  400d80 <munmap@plt>
  401e12:	ba 00 60 58 55       	mov    $0x55586000,%edx
  401e17:	be 88 33 40 00       	mov    $0x403388,%esi
  401e1c:	48 8b 3d ad 26 20 00 	mov    0x2026ad(%rip),%rdi        # 6044d0 <stderr@@GLIBC_2.2.5>
  401e23:	b8 00 00 00 00       	mov    $0x0,%eax
  401e28:	e8 d3 ee ff ff       	callq  400d00 <fprintf@plt>
  401e2d:	bf 01 00 00 00       	mov    $0x1,%edi
  401e32:	e8 b9 ef ff ff       	callq  400df0 <exit@plt>
  401e37:	48 c7 05 ee 32 20 00 	movq   $0x55685ff8,0x2032ee(%rip)        # 605130 <stack_top>
  401e3e:	f8 5f 68 55 
  401e42:	ba f8 5f 68 55       	mov    $0x55685ff8,%edx
  401e47:	48 89 e0             	mov    %rsp,%rax
  401e4a:	48 89 d4             	mov    %rdx,%rsp
  401e4d:	48 89 c2             	mov    %rax,%rdx
  401e50:	48 89 15 89 26 20 00 	mov    %rdx,0x202689(%rip)        # 6044e0 <global_save_stack>
  401e57:	48 8b 3d 8a 26 20 00 	mov    0x20268a(%rip),%rdi        # 6044e8 <global_offset>
  401e5e:	e8 e9 fe ff ff       	callq  401d4c <launch>
  401e63:	48 8b 05 76 26 20 00 	mov    0x202676(%rip),%rax        # 6044e0 <global_save_stack>
  401e6a:	48 89 c4             	mov    %rax,%rsp
  401e6d:	be 00 00 10 00       	mov    $0x100000,%esi
  401e72:	bf 00 60 58 55       	mov    $0x55586000,%edi
  401e77:	e8 04 ef ff ff       	callq  400d80 <munmap@plt>
  401e7c:	48 83 c4 08          	add    $0x8,%rsp
  401e80:	c3                   	retq   
  401e81:	66 2e 0f 1f 84 00 00 	nopw   %cs:0x0(%rax,%rax,1)
  401e88:	00 00 00 
  401e8b:	0f 1f 44 00 00       	nopl   0x0(%rax,%rax,1)

0000000000401e90 <sigalrm_handler>:
  401e90:	48 83 ec 08          	sub    $0x8,%rsp
  401e94:	ba 00 00 00 00       	mov    $0x0,%edx
  401e99:	be c0 33 40 00       	mov    $0x4033c0,%esi
  401e9e:	48 8b 3d 2b 26 20 00 	mov    0x20262b(%rip),%rdi        # 6044d0 <stderr@@GLIBC_2.2.5>
  401ea5:	b8 00 00 00 00       	mov    $0x0,%eax
  401eaa:	e8 51 ee ff ff       	callq  400d00 <fprintf@plt>
  401eaf:	bf 01 00 00 00       	mov    $0x1,%edi
  401eb4:	e8 37 ef ff ff       	callq  400df0 <exit@plt>

0000000000401eb9 <rio_readlineb>:
  401eb9:	41 57                	push   %r15
  401ebb:	41 56                	push   %r14
  401ebd:	41 55                	push   %r13
  401ebf:	41 54                	push   %r12
  401ec1:	55                   	push   %rbp
  401ec2:	53                   	push   %rbx
  401ec3:	48 83 ec 38          	sub    $0x38,%rsp
  401ec7:	49 89 f6             	mov    %rsi,%r14
  401eca:	48 89 54 24 18       	mov    %rdx,0x18(%rsp)
  401ecf:	48 83 fa 01          	cmp    $0x1,%rdx
  401ed3:	0f 86 bd 00 00 00    	jbe    401f96 <rio_readlineb+0xdd>
  401ed9:	48 89 fb             	mov    %rdi,%rbx
  401edc:	41 bd 01 00 00 00    	mov    $0x1,%r13d
  401ee2:	4c 8d 67 10          	lea    0x10(%rdi),%r12
  401ee6:	eb 2e                	jmp    401f16 <rio_readlineb+0x5d>
  401ee8:	ba 00 20 00 00       	mov    $0x2000,%edx
  401eed:	4c 89 e6             	mov    %r12,%rsi
  401ef0:	8b 3b                	mov    (%rbx),%edi
  401ef2:	e8 c9 ed ff ff       	callq  400cc0 <read@plt>
  401ef7:	89 43 04             	mov    %eax,0x4(%rbx)
  401efa:	85 c0                	test   %eax,%eax
  401efc:	79 0f                	jns    401f0d <rio_readlineb+0x54>
  401efe:	e8 0d ed ff ff       	callq  400c10 <__errno_location@plt>
  401f03:	83 38 04             	cmpl   $0x4,(%rax)
  401f06:	74 0e                	je     401f16 <rio_readlineb+0x5d>
  401f08:	e9 98 00 00 00       	jmpq   401fa5 <rio_readlineb+0xec>
  401f0d:	85 c0                	test   %eax,%eax
  401f0f:	90                   	nop
  401f10:	74 6c                	je     401f7e <rio_readlineb+0xc5>
  401f12:	4c 89 63 08          	mov    %r12,0x8(%rbx)
  401f16:	8b 6b 04             	mov    0x4(%rbx),%ebp
  401f19:	85 ed                	test   %ebp,%ebp
  401f1b:	7e cb                	jle    401ee8 <rio_readlineb+0x2f>
  401f1d:	85 ed                	test   %ebp,%ebp
  401f1f:	41 0f 95 c7          	setne  %r15b
  401f23:	41 0f b6 c7          	movzbl %r15b,%eax
  401f27:	89 44 24 0c          	mov    %eax,0xc(%rsp)
  401f2b:	45 0f b6 ff          	movzbl %r15b,%r15d
  401f2f:	48 8b 4b 08          	mov    0x8(%rbx),%rcx
  401f33:	4c 89 fa             	mov    %r15,%rdx
  401f36:	48 89 4c 24 10       	mov    %rcx,0x10(%rsp)
  401f3b:	48 89 ce             	mov    %rcx,%rsi
  401f3e:	48 8d 7c 24 2f       	lea    0x2f(%rsp),%rdi
  401f43:	e8 e8 ed ff ff       	callq  400d30 <memcpy@plt>
  401f48:	4c 03 7c 24 10       	add    0x10(%rsp),%r15
  401f4d:	4c 89 7b 08          	mov    %r15,0x8(%rbx)
  401f51:	8b 44 24 0c          	mov    0xc(%rsp),%eax
  401f55:	29 c5                	sub    %eax,%ebp
  401f57:	89 6b 04             	mov    %ebp,0x4(%rbx)
  401f5a:	83 f8 01             	cmp    $0x1,%eax
  401f5d:	75 13                	jne    401f72 <rio_readlineb+0xb9>
  401f5f:	49 83 c6 01          	add    $0x1,%r14
  401f63:	0f b6 44 24 2f       	movzbl 0x2f(%rsp),%eax
  401f68:	41 88 46 ff          	mov    %al,-0x1(%r14)
  401f6c:	3c 0a                	cmp    $0xa,%al
  401f6e:	75 19                	jne    401f89 <rio_readlineb+0xd0>
  401f70:	eb 2a                	jmp    401f9c <rio_readlineb+0xe3>
  401f72:	83 7c 24 0c 00       	cmpl   $0x0,0xc(%rsp)
  401f77:	75 35                	jne    401fae <rio_readlineb+0xf5>
  401f79:	4c 89 e8             	mov    %r13,%rax
  401f7c:	eb 03                	jmp    401f81 <rio_readlineb+0xc8>
  401f7e:	4c 89 e8             	mov    %r13,%rax
  401f81:	48 83 f8 01          	cmp    $0x1,%rax
  401f85:	75 15                	jne    401f9c <rio_readlineb+0xe3>
  401f87:	eb 2e                	jmp    401fb7 <rio_readlineb+0xfe>
  401f89:	49 83 c5 01          	add    $0x1,%r13
  401f8d:	4c 3b 6c 24 18       	cmp    0x18(%rsp),%r13
  401f92:	74 08                	je     401f9c <rio_readlineb+0xe3>
  401f94:	eb 80                	jmp    401f16 <rio_readlineb+0x5d>
  401f96:	41 bd 01 00 00 00    	mov    $0x1,%r13d
  401f9c:	41 c6 06 00          	movb   $0x0,(%r14)
  401fa0:	4c 89 e8             	mov    %r13,%rax
  401fa3:	eb 17                	jmp    401fbc <rio_readlineb+0x103>
  401fa5:	48 c7 c0 ff ff ff ff 	mov    $0xffffffffffffffff,%rax
  401fac:	eb 0e                	jmp    401fbc <rio_readlineb+0x103>
  401fae:	48 c7 c0 ff ff ff ff 	mov    $0xffffffffffffffff,%rax
  401fb5:	eb 05                	jmp    401fbc <rio_readlineb+0x103>
  401fb7:	b8 00 00 00 00       	mov    $0x0,%eax
  401fbc:	48 83 c4 38          	add    $0x38,%rsp
  401fc0:	5b                   	pop    %rbx
  401fc1:	5d                   	pop    %rbp
  401fc2:	41 5c                	pop    %r12
  401fc4:	41 5d                	pop    %r13
  401fc6:	41 5e                	pop    %r14
  401fc8:	41 5f                	pop    %r15
  401fca:	c3                   	retq   

0000000000401fcb <submitr>:
  401fcb:	41 57                	push   %r15
  401fcd:	41 56                	push   %r14
  401fcf:	41 55                	push   %r13
  401fd1:	41 54                	push   %r12
  401fd3:	55                   	push   %rbp
  401fd4:	53                   	push   %rbx
  401fd5:	48 81 ec 58 a0 00 00 	sub    $0xa058,%rsp
  401fdc:	49 89 ff             	mov    %rdi,%r15
  401fdf:	89 f5                	mov    %esi,%ebp
  401fe1:	48 89 14 24          	mov    %rdx,(%rsp)
  401fe5:	48 89 4c 24 08       	mov    %rcx,0x8(%rsp)
  401fea:	4d 89 c5             	mov    %r8,%r13
  401fed:	4c 89 cb             	mov    %r9,%rbx
  401ff0:	4c 8b b4 24 90 a0 00 	mov    0xa090(%rsp),%r14
  401ff7:	00 
  401ff8:	c7 84 24 2c 20 00 00 	movl   $0x0,0x202c(%rsp)
  401fff:	00 00 00 00 
  402003:	ba 00 00 00 00       	mov    $0x0,%edx
  402008:	be 01 00 00 00       	mov    $0x1,%esi
  40200d:	bf 02 00 00 00       	mov    $0x2,%edi
  402012:	e8 f9 ed ff ff       	callq  400e10 <socket@plt>
  402017:	41 89 c4             	mov    %eax,%r12d
  40201a:	85 c0                	test   %eax,%eax
  40201c:	79 50                	jns    40206e <submitr+0xa3>
  40201e:	48 b8 45 72 72 6f 72 	movabs $0x43203a726f727245,%rax
  402025:	3a 20 43 
  402028:	49 89 06             	mov    %rax,(%r14)
  40202b:	48 b8 6c 69 65 6e 74 	movabs $0x6e7520746e65696c,%rax
  402032:	20 75 6e 
  402035:	49 89 46 08          	mov    %rax,0x8(%r14)
  402039:	48 b8 61 62 6c 65 20 	movabs $0x206f7420656c6261,%rax
  402040:	74 6f 20 
  402043:	49 89 46 10          	mov    %rax,0x10(%r14)
  402047:	48 b8 63 72 65 61 74 	movabs $0x7320657461657263,%rax
  40204e:	65 20 73 
  402051:	49 89 46 18          	mov    %rax,0x18(%r14)
  402055:	41 c7 46 20 6f 63 6b 	movl   $0x656b636f,0x20(%r14)
  40205c:	65 
  40205d:	66 41 c7 46 24 74 00 	movw   $0x74,0x24(%r14)
  402064:	b8 ff ff ff ff       	mov    $0xffffffff,%eax
  402069:	e9 b3 07 00 00       	jmpq   402821 <submitr+0x856>
  40206e:	4c 89 ff             	mov    %r15,%rdi
  402071:	e8 7a ec ff ff       	callq  400cf0 <gethostbyname@plt>
  402076:	48 85 c0             	test   %rax,%rax
  402079:	75 6b                	jne    4020e6 <submitr+0x11b>
  40207b:	48 b8 45 72 72 6f 72 	movabs $0x44203a726f727245,%rax
  402082:	3a 20 44 
  402085:	49 89 06             	mov    %rax,(%r14)
  402088:	48 b8 4e 53 20 69 73 	movabs $0x6e7520736920534e,%rax
  40208f:	20 75 6e 
  402092:	49 89 46 08          	mov    %rax,0x8(%r14)
  402096:	48 b8 61 62 6c 65 20 	movabs $0x206f7420656c6261,%rax
  40209d:	74 6f 20 
  4020a0:	49 89 46 10          	mov    %rax,0x10(%r14)
  4020a4:	48 b8 72 65 73 6f 6c 	movabs $0x2065766c6f736572,%rax
  4020ab:	76 65 20 
  4020ae:	49 89 46 18          	mov    %rax,0x18(%r14)
  4020b2:	48 b8 73 65 72 76 65 	movabs $0x6120726576726573,%rax
  4020b9:	72 20 61 
  4020bc:	49 89 46 20          	mov    %rax,0x20(%r14)
  4020c0:	41 c7 46 28 64 64 72 	movl   $0x65726464,0x28(%r14)
  4020c7:	65 
  4020c8:	66 41 c7 46 2c 73 73 	movw   $0x7373,0x2c(%r14)
  4020cf:	41 c6 46 2e 00       	movb   $0x0,0x2e(%r14)
  4020d4:	44 89 e7             	mov    %r12d,%edi
  4020d7:	e8 d4 eb ff ff       	callq  400cb0 <close@plt>
  4020dc:	b8 ff ff ff ff       	mov    $0xffffffff,%eax
  4020e1:	e9 3b 07 00 00       	jmpq   402821 <submitr+0x856>
  4020e6:	48 c7 84 24 40 a0 00 	movq   $0x0,0xa040(%rsp)
  4020ed:	00 00 00 00 00 
  4020f2:	48 c7 84 24 48 a0 00 	movq   $0x0,0xa048(%rsp)
  4020f9:	00 00 00 00 00 
  4020fe:	66 c7 84 24 40 a0 00 	movw   $0x2,0xa040(%rsp)
  402105:	00 02 00 
  402108:	48 63 50 14          	movslq 0x14(%rax),%rdx
  40210c:	48 8d b4 24 44 a0 00 	lea    0xa044(%rsp),%rsi
  402113:	00 
  402114:	48 8b 40 18          	mov    0x18(%rax),%rax
  402118:	48 8b 38             	mov    (%rax),%rdi
  40211b:	e8 70 ec ff ff       	callq  400d90 <bcopy@plt>
  402120:	66 c1 cd 08          	ror    $0x8,%bp
  402124:	66 89 ac 24 42 a0 00 	mov    %bp,0xa042(%rsp)
  40212b:	00 
  40212c:	ba 10 00 00 00       	mov    $0x10,%edx
  402131:	48 8d b4 24 40 a0 00 	lea    0xa040(%rsp),%rsi
  402138:	00 
  402139:	44 89 e7             	mov    %r12d,%edi
  40213c:	e8 bf ec ff ff       	callq  400e00 <connect@plt>
  402141:	85 c0                	test   %eax,%eax
  402143:	79 5d                	jns    4021a2 <submitr+0x1d7>
  402145:	48 b8 45 72 72 6f 72 	movabs $0x55203a726f727245,%rax
  40214c:	3a 20 55 
  40214f:	49 89 06             	mov    %rax,(%r14)
  402152:	48 b8 6e 61 62 6c 65 	movabs $0x6f7420656c62616e,%rax
  402159:	20 74 6f 
  40215c:	49 89 46 08          	mov    %rax,0x8(%r14)
  402160:	48 b8 20 63 6f 6e 6e 	movabs $0x7463656e6e6f6320,%rax
  402167:	65 63 74 
  40216a:	49 89 46 10          	mov    %rax,0x10(%r14)
  40216e:	48 b8 20 74 6f 20 74 	movabs $0x20656874206f7420,%rax
  402175:	68 65 20 
  402178:	49 89 46 18          	mov    %rax,0x18(%r14)
  40217c:	41 c7 46 20 73 65 72 	movl   $0x76726573,0x20(%r14)
  402183:	76 
  402184:	66 41 c7 46 24 65 72 	movw   $0x7265,0x24(%r14)
  40218b:	41 c6 46 26 00       	movb   $0x0,0x26(%r14)
  402190:	44 89 e7             	mov    %r12d,%edi
  402193:	e8 18 eb ff ff       	callq  400cb0 <close@plt>
  402198:	b8 ff ff ff ff       	mov    $0xffffffff,%eax
  40219d:	e9 7f 06 00 00       	jmpq   402821 <submitr+0x856>
  4021a2:	48 c7 c2 ff ff ff ff 	mov    $0xffffffffffffffff,%rdx
  4021a9:	48 89 df             	mov    %rbx,%rdi
  4021ac:	b8 00 00 00 00       	mov    $0x0,%eax
  4021b1:	48 89 d1             	mov    %rdx,%rcx
  4021b4:	f2 ae                	repnz scas %es:(%rdi),%al
  4021b6:	48 f7 d1             	not    %rcx
  4021b9:	48 89 ce             	mov    %rcx,%rsi
  4021bc:	48 8b 3c 24          	mov    (%rsp),%rdi
  4021c0:	48 89 d1             	mov    %rdx,%rcx
  4021c3:	f2 ae                	repnz scas %es:(%rdi),%al
  4021c5:	49 89 c8             	mov    %rcx,%r8
  4021c8:	48 8b 7c 24 08       	mov    0x8(%rsp),%rdi
  4021cd:	48 89 d1             	mov    %rdx,%rcx
  4021d0:	f2 ae                	repnz scas %es:(%rdi),%al
  4021d2:	48 f7 d1             	not    %rcx
  4021d5:	49 89 c9             	mov    %rcx,%r9
  4021d8:	4c 89 ef             	mov    %r13,%rdi
  4021db:	48 89 d1             	mov    %rdx,%rcx
  4021de:	f2 ae                	repnz scas %es:(%rdi),%al
  4021e0:	4d 29 c1             	sub    %r8,%r9
  4021e3:	49 29 c9             	sub    %rcx,%r9
  4021e6:	48 8d 44 76 fd       	lea    -0x3(%rsi,%rsi,2),%rax
  4021eb:	49 8d 44 01 7b       	lea    0x7b(%r9,%rax,1),%rax
  4021f0:	48 3d 00 20 00 00    	cmp    $0x2000,%rax
  4021f6:	76 73                	jbe    40226b <submitr+0x2a0>
  4021f8:	48 b8 45 72 72 6f 72 	movabs $0x52203a726f727245,%rax
  4021ff:	3a 20 52 
  402202:	49 89 06             	mov    %rax,(%r14)
  402205:	48 b8 65 73 75 6c 74 	movabs $0x747320746c757365,%rax
  40220c:	20 73 74 
  40220f:	49 89 46 08          	mov    %rax,0x8(%r14)
  402213:	48 b8 72 69 6e 67 20 	movabs $0x6f6f7420676e6972,%rax
  40221a:	74 6f 6f 
  40221d:	49 89 46 10          	mov    %rax,0x10(%r14)
  402221:	48 b8 20 6c 61 72 67 	movabs $0x202e656772616c20,%rax
  402228:	65 2e 20 
  40222b:	49 89 46 18          	mov    %rax,0x18(%r14)
  40222f:	48 b8 49 6e 63 72 65 	movabs $0x6573616572636e49,%rax
  402236:	61 73 65 
  402239:	49 89 46 20          	mov    %rax,0x20(%r14)
  40223d:	48 b8 20 53 55 42 4d 	movabs $0x5254494d42555320,%rax
  402244:	49 54 52 
  402247:	49 89 46 28          	mov    %rax,0x28(%r14)
  40224b:	48 b8 5f 4d 41 58 42 	movabs $0x46554258414d5f,%rax
  402252:	55 46 00 
  402255:	49 89 46 30          	mov    %rax,0x30(%r14)
  402259:	44 89 e7             	mov    %r12d,%edi
  40225c:	e8 4f ea ff ff       	callq  400cb0 <close@plt>
  402261:	b8 ff ff ff ff       	mov    $0xffffffff,%eax
  402266:	e9 b6 05 00 00       	jmpq   402821 <submitr+0x856>
  40226b:	48 8d 94 24 30 40 00 	lea    0x4030(%rsp),%rdx
  402272:	00 
  402273:	b9 00 04 00 00       	mov    $0x400,%ecx
  402278:	b8 00 00 00 00       	mov    $0x0,%eax
  40227d:	48 89 d7             	mov    %rdx,%rdi
  402280:	f3 48 ab             	rep stos %rax,%es:(%rdi)
  402283:	48 89 df             	mov    %rbx,%rdi
  402286:	48 c7 c1 ff ff ff ff 	mov    $0xffffffffffffffff,%rcx
  40228d:	f2 ae                	repnz scas %es:(%rdi),%al
  40228f:	48 f7 d1             	not    %rcx
  402292:	48 83 e9 01          	sub    $0x1,%rcx
  402296:	85 c9                	test   %ecx,%ecx
  402298:	0f 84 50 04 00 00    	je     4026ee <submitr+0x723>
  40229e:	8d 41 ff             	lea    -0x1(%rcx),%eax
  4022a1:	4c 8d 6c 03 01       	lea    0x1(%rbx,%rax,1),%r13
  4022a6:	48 89 d5             	mov    %rdx,%rbp
  4022a9:	0f b6 13             	movzbl (%rbx),%edx
  4022ac:	80 fa 2a             	cmp    $0x2a,%dl
  4022af:	74 1f                	je     4022d0 <submitr+0x305>
  4022b1:	8d 42 d3             	lea    -0x2d(%rdx),%eax
  4022b4:	3c 01                	cmp    $0x1,%al
  4022b6:	76 18                	jbe    4022d0 <submitr+0x305>
  4022b8:	80 fa 5f             	cmp    $0x5f,%dl
  4022bb:	74 13                	je     4022d0 <submitr+0x305>
  4022bd:	8d 42 d0             	lea    -0x30(%rdx),%eax
  4022c0:	3c 09                	cmp    $0x9,%al
  4022c2:	76 0c                	jbe    4022d0 <submitr+0x305>
  4022c4:	89 d0                	mov    %edx,%eax
  4022c6:	83 e0 df             	and    $0xffffffdf,%eax
  4022c9:	83 e8 41             	sub    $0x41,%eax
  4022cc:	3c 19                	cmp    $0x19,%al
  4022ce:	77 09                	ja     4022d9 <submitr+0x30e>
  4022d0:	48 8d 45 01          	lea    0x1(%rbp),%rax
  4022d4:	88 55 00             	mov    %dl,0x0(%rbp)
  4022d7:	eb 52                	jmp    40232b <submitr+0x360>
  4022d9:	80 fa 20             	cmp    $0x20,%dl
  4022dc:	75 0a                	jne    4022e8 <submitr+0x31d>
  4022de:	48 8d 45 01          	lea    0x1(%rbp),%rax
  4022e2:	c6 45 00 2b          	movb   $0x2b,0x0(%rbp)
  4022e6:	eb 43                	jmp    40232b <submitr+0x360>
  4022e8:	8d 42 e0             	lea    -0x20(%rdx),%eax
  4022eb:	3c 5f                	cmp    $0x5f,%al
  4022ed:	76 09                	jbe    4022f8 <submitr+0x32d>
  4022ef:	80 fa 09             	cmp    $0x9,%dl
  4022f2:	0f 85 57 04 00 00    	jne    40274f <submitr+0x784>
  4022f8:	0f b6 d2             	movzbl %dl,%edx
  4022fb:	be 58 34 40 00       	mov    $0x403458,%esi
  402300:	48 8d 7c 24 10       	lea    0x10(%rsp),%rdi
  402305:	b8 00 00 00 00       	mov    $0x0,%eax
  40230a:	e8 d1 ea ff ff       	callq  400de0 <sprintf@plt>
  40230f:	0f b6 44 24 10       	movzbl 0x10(%rsp),%eax
  402314:	88 45 00             	mov    %al,0x0(%rbp)
  402317:	0f b6 44 24 11       	movzbl 0x11(%rsp),%eax
  40231c:	88 45 01             	mov    %al,0x1(%rbp)
  40231f:	48 8d 45 03          	lea    0x3(%rbp),%rax
  402323:	0f b6 54 24 12       	movzbl 0x12(%rsp),%edx
  402328:	88 55 02             	mov    %dl,0x2(%rbp)
  40232b:	48 83 c3 01          	add    $0x1,%rbx
  40232f:	4c 39 eb             	cmp    %r13,%rbx
  402332:	0f 84 b6 03 00 00    	je     4026ee <submitr+0x723>
  402338:	48 89 c5             	mov    %rax,%rbp
  40233b:	e9 69 ff ff ff       	jmpq   4022a9 <submitr+0x2de>
  402340:	48 89 da             	mov    %rbx,%rdx
  402343:	48 89 ee             	mov    %rbp,%rsi
  402346:	44 89 e7             	mov    %r12d,%edi
  402349:	e8 12 e9 ff ff       	callq  400c60 <write@plt>
  40234e:	48 85 c0             	test   %rax,%rax
  402351:	7f 0f                	jg     402362 <submitr+0x397>
  402353:	e8 b8 e8 ff ff       	callq  400c10 <__errno_location@plt>
  402358:	83 38 04             	cmpl   $0x4,(%rax)
  40235b:	75 12                	jne    40236f <submitr+0x3a4>
  40235d:	b8 00 00 00 00       	mov    $0x0,%eax
  402362:	48 01 c5             	add    %rax,%rbp
  402365:	48 29 c3             	sub    %rax,%rbx
  402368:	75 d6                	jne    402340 <submitr+0x375>
  40236a:	4d 85 ed             	test   %r13,%r13
  40236d:	79 71                	jns    4023e0 <submitr+0x415>
  40236f:	48 b8 45 72 72 6f 72 	movabs $0x43203a726f727245,%rax
  402376:	3a 20 43 
  402379:	49 89 06             	mov    %rax,(%r14)
  40237c:	48 b8 6c 69 65 6e 74 	movabs $0x6e7520746e65696c,%rax
  402383:	20 75 6e 
  402386:	49 89 46 08          	mov    %rax,0x8(%r14)
  40238a:	48 b8 61 62 6c 65 20 	movabs $0x206f7420656c6261,%rax
  402391:	74 6f 20 
  402394:	49 89 46 10          	mov    %rax,0x10(%r14)
  402398:	48 b8 77 72 69 74 65 	movabs $0x6f74206574697277,%rax
  40239f:	20 74 6f 
  4023a2:	49 89 46 18          	mov    %rax,0x18(%r14)
  4023a6:	48 b8 20 74 68 65 20 	movabs $0x7365722065687420,%rax
  4023ad:	72 65 73 
  4023b0:	49 89 46 20          	mov    %rax,0x20(%r14)
  4023b4:	48 b8 75 6c 74 20 73 	movabs $0x7672657320746c75,%rax
  4023bb:	65 72 76 
  4023be:	49 89 46 28          	mov    %rax,0x28(%r14)
  4023c2:	66 41 c7 46 30 65 72 	movw   $0x7265,0x30(%r14)
  4023c9:	41 c6 46 32 00       	movb   $0x0,0x32(%r14)
  4023ce:	44 89 e7             	mov    %r12d,%edi
  4023d1:	e8 da e8 ff ff       	callq  400cb0 <close@plt>
  4023d6:	b8 ff ff ff ff       	mov    $0xffffffff,%eax
  4023db:	e9 41 04 00 00       	jmpq   402821 <submitr+0x856>
  4023e0:	44 89 a4 24 30 80 00 	mov    %r12d,0x8030(%rsp)
  4023e7:	00 
  4023e8:	c7 84 24 34 80 00 00 	movl   $0x0,0x8034(%rsp)
  4023ef:	00 00 00 00 
  4023f3:	48 8d 84 24 40 80 00 	lea    0x8040(%rsp),%rax
  4023fa:	00 
  4023fb:	48 89 84 24 38 80 00 	mov    %rax,0x8038(%rsp)
  402402:	00 
  402403:	ba 00 20 00 00       	mov    $0x2000,%edx
  402408:	48 8d b4 24 30 60 00 	lea    0x6030(%rsp),%rsi
  40240f:	00 
  402410:	48 8d bc 24 30 80 00 	lea    0x8030(%rsp),%rdi
  402417:	00 
  402418:	e8 9c fa ff ff       	callq  401eb9 <rio_readlineb>
  40241d:	48 85 c0             	test   %rax,%rax
  402420:	0f 8f 80 00 00 00    	jg     4024a6 <submitr+0x4db>
  402426:	48 b8 45 72 72 6f 72 	movabs $0x43203a726f727245,%rax
  40242d:	3a 20 43 
  402430:	49 89 06             	mov    %rax,(%r14)
  402433:	48 b8 6c 69 65 6e 74 	movabs $0x6e7520746e65696c,%rax
  40243a:	20 75 6e 
  40243d:	49 89 46 08          	mov    %rax,0x8(%r14)
  402441:	48 b8 61 62 6c 65 20 	movabs $0x206f7420656c6261,%rax
  402448:	74 6f 20 
  40244b:	49 89 46 10          	mov    %rax,0x10(%r14)
  40244f:	48 b8 72 65 61 64 20 	movabs $0x7269662064616572,%rax
  402456:	66 69 72 
  402459:	49 89 46 18          	mov    %rax,0x18(%r14)
  40245d:	48 b8 73 74 20 68 65 	movabs $0x6564616568207473,%rax
  402464:	61 64 65 
  402467:	49 89 46 20          	mov    %rax,0x20(%r14)
  40246b:	48 b8 72 20 66 72 6f 	movabs $0x72206d6f72662072,%rax
  402472:	6d 20 72 
  402475:	49 89 46 28          	mov    %rax,0x28(%r14)
  402479:	48 b8 65 73 75 6c 74 	movabs $0x657320746c757365,%rax
  402480:	20 73 65 
  402483:	49 89 46 30          	mov    %rax,0x30(%r14)
  402487:	41 c7 46 38 72 76 65 	movl   $0x72657672,0x38(%r14)
  40248e:	72 
  40248f:	41 c6 46 3c 00       	movb   $0x0,0x3c(%r14)
  402494:	44 89 e7             	mov    %r12d,%edi
  402497:	e8 14 e8 ff ff       	callq  400cb0 <close@plt>
  40249c:	b8 ff ff ff ff       	mov    $0xffffffff,%eax
  4024a1:	e9 7b 03 00 00       	jmpq   402821 <submitr+0x856>
  4024a6:	4c 8d 44 24 20       	lea    0x20(%rsp),%r8
  4024ab:	48 8d 8c 24 2c 20 00 	lea    0x202c(%rsp),%rcx
  4024b2:	00 
  4024b3:	48 8d 94 24 30 20 00 	lea    0x2030(%rsp),%rdx
  4024ba:	00 
  4024bb:	be 5f 34 40 00       	mov    $0x40345f,%esi
  4024c0:	48 8d bc 24 30 60 00 	lea    0x6030(%rsp),%rdi
  4024c7:	00 
  4024c8:	b8 00 00 00 00       	mov    $0x0,%eax
  4024cd:	e8 9e e8 ff ff       	callq  400d70 <__isoc99_sscanf@plt>
  4024d2:	e9 9a 00 00 00       	jmpq   402571 <submitr+0x5a6>
  4024d7:	ba 00 20 00 00       	mov    $0x2000,%edx
  4024dc:	48 8d b4 24 30 60 00 	lea    0x6030(%rsp),%rsi
  4024e3:	00 
  4024e4:	48 8d bc 24 30 80 00 	lea    0x8030(%rsp),%rdi
  4024eb:	00 
  4024ec:	e8 c8 f9 ff ff       	callq  401eb9 <rio_readlineb>
  4024f1:	48 85 c0             	test   %rax,%rax
  4024f4:	7f 7b                	jg     402571 <submitr+0x5a6>
  4024f6:	48 b8 45 72 72 6f 72 	movabs $0x43203a726f727245,%rax
  4024fd:	3a 20 43 
  402500:	49 89 06             	mov    %rax,(%r14)
  402503:	48 b8 6c 69 65 6e 74 	movabs $0x6e7520746e65696c,%rax
  40250a:	20 75 6e 
  40250d:	49 89 46 08          	mov    %rax,0x8(%r14)
  402511:	48 b8 61 62 6c 65 20 	movabs $0x206f7420656c6261,%rax
  402518:	74 6f 20 
  40251b:	49 89 46 10          	mov    %rax,0x10(%r14)
  40251f:	48 b8 72 65 61 64 20 	movabs $0x6165682064616572,%rax
  402526:	68 65 61 
  402529:	49 89 46 18          	mov    %rax,0x18(%r14)
  40252d:	48 b8 64 65 72 73 20 	movabs $0x6f72662073726564,%rax
  402534:	66 72 6f 
  402537:	49 89 46 20          	mov    %rax,0x20(%r14)
  40253b:	48 b8 6d 20 74 68 65 	movabs $0x657220656874206d,%rax
  402542:	20 72 65 
  402545:	49 89 46 28          	mov    %rax,0x28(%r14)
  402549:	48 b8 73 75 6c 74 20 	movabs $0x72657320746c7573,%rax
  402550:	73 65 72 
  402553:	49 89 46 30          	mov    %rax,0x30(%r14)
  402557:	41 c7 46 38 76 65 72 	movl   $0x726576,0x38(%r14)
  40255e:	00 
  40255f:	44 89 e7             	mov    %r12d,%edi
  402562:	e8 49 e7 ff ff       	callq  400cb0 <close@plt>
  402567:	b8 ff ff ff ff       	mov    $0xffffffff,%eax
  40256c:	e9 b0 02 00 00       	jmpq   402821 <submitr+0x856>
  402571:	80 bc 24 30 60 00 00 	cmpb   $0xd,0x6030(%rsp)
  402578:	0d 
  402579:	0f 85 58 ff ff ff    	jne    4024d7 <submitr+0x50c>
  40257f:	80 bc 24 31 60 00 00 	cmpb   $0xa,0x6031(%rsp)
  402586:	0a 
  402587:	0f 85 4a ff ff ff    	jne    4024d7 <submitr+0x50c>
  40258d:	80 bc 24 32 60 00 00 	cmpb   $0x0,0x6032(%rsp)
  402594:	00 
  402595:	0f 85 3c ff ff ff    	jne    4024d7 <submitr+0x50c>
  40259b:	ba 00 20 00 00       	mov    $0x2000,%edx
  4025a0:	48 8d b4 24 30 60 00 	lea    0x6030(%rsp),%rsi
  4025a7:	00 
  4025a8:	48 8d bc 24 30 80 00 	lea    0x8030(%rsp),%rdi
  4025af:	00 
  4025b0:	e8 04 f9 ff ff       	callq  401eb9 <rio_readlineb>
  4025b5:	48 85 c0             	test   %rax,%rax
  4025b8:	0f 8f 87 00 00 00    	jg     402645 <submitr+0x67a>
  4025be:	48 b8 45 72 72 6f 72 	movabs $0x43203a726f727245,%rax
  4025c5:	3a 20 43 
  4025c8:	49 89 06             	mov    %rax,(%r14)
  4025cb:	48 b8 6c 69 65 6e 74 	movabs $0x6e7520746e65696c,%rax
  4025d2:	20 75 6e 
  4025d5:	49 89 46 08          	mov    %rax,0x8(%r14)
  4025d9:	48 b8 61 62 6c 65 20 	movabs $0x206f7420656c6261,%rax
  4025e0:	74 6f 20 
  4025e3:	49 89 46 10          	mov    %rax,0x10(%r14)
  4025e7:	48 b8 72 65 61 64 20 	movabs $0x6174732064616572,%rax
  4025ee:	73 74 61 
  4025f1:	49 89 46 18          	mov    %rax,0x18(%r14)
  4025f5:	48 b8 74 75 73 20 6d 	movabs $0x7373656d20737574,%rax
  4025fc:	65 73 73 
  4025ff:	49 89 46 20          	mov    %rax,0x20(%r14)
  402603:	48 b8 61 67 65 20 66 	movabs $0x6d6f726620656761,%rax
  40260a:	72 6f 6d 
  40260d:	49 89 46 28          	mov    %rax,0x28(%r14)
  402611:	48 b8 20 72 65 73 75 	movabs $0x20746c7573657220,%rax
  402618:	6c 74 20 
  40261b:	49 89 46 30          	mov    %rax,0x30(%r14)
  40261f:	41 c7 46 38 73 65 72 	movl   $0x76726573,0x38(%r14)
  402626:	76 
  402627:	66 41 c7 46 3c 65 72 	movw   $0x7265,0x3c(%r14)
  40262e:	41 c6 46 3e 00       	movb   $0x0,0x3e(%r14)
  402633:	44 89 e7             	mov    %r12d,%edi
  402636:	e8 75 e6 ff ff       	callq  400cb0 <close@plt>
  40263b:	b8 ff ff ff ff       	mov    $0xffffffff,%eax
  402640:	e9 dc 01 00 00       	jmpq   402821 <submitr+0x856>
  402645:	8b 94 24 2c 20 00 00 	mov    0x202c(%rsp),%edx
  40264c:	81 fa c8 00 00 00    	cmp    $0xc8,%edx
  402652:	74 29                	je     40267d <submitr+0x6b2>
  402654:	48 8d 4c 24 20       	lea    0x20(%rsp),%rcx
  402659:	be e8 33 40 00       	mov    $0x4033e8,%esi
  40265e:	4c 89 f7             	mov    %r14,%rdi
  402661:	b8 00 00 00 00       	mov    $0x0,%eax
  402666:	e8 75 e7 ff ff       	callq  400de0 <sprintf@plt>
  40266b:	44 89 e7             	mov    %r12d,%edi
  40266e:	e8 3d e6 ff ff       	callq  400cb0 <close@plt>
  402673:	b8 ff ff ff ff       	mov    $0xffffffff,%eax
  402678:	e9 a4 01 00 00       	jmpq   402821 <submitr+0x856>
  40267d:	48 8d b4 24 30 60 00 	lea    0x6030(%rsp),%rsi
  402684:	00 
  402685:	4c 89 f7             	mov    %r14,%rdi
  402688:	e8 b3 e5 ff ff       	callq  400c40 <strcpy@plt>
  40268d:	44 89 e7             	mov    %r12d,%edi
  402690:	e8 1b e6 ff ff       	callq  400cb0 <close@plt>
  402695:	41 0f b6 06          	movzbl (%r14),%eax
  402699:	83 e8 4f             	sub    $0x4f,%eax
  40269c:	89 c2                	mov    %eax,%edx
  40269e:	0f 85 35 01 00 00    	jne    4027d9 <submitr+0x80e>
  4026a4:	41 80 7e 01 4b       	cmpb   $0x4b,0x1(%r14)
  4026a9:	0f 85 50 01 00 00    	jne    4027ff <submitr+0x834>
  4026af:	41 80 7e 02 0a       	cmpb   $0xa,0x2(%r14)
  4026b4:	0f 85 45 01 00 00    	jne    4027ff <submitr+0x834>
  4026ba:	41 80 7e 03 00       	cmpb   $0x0,0x3(%r14)
  4026bf:	74 23                	je     4026e4 <submitr+0x719>
  4026c1:	e9 39 01 00 00       	jmpq   4027ff <submitr+0x834>
  4026c6:	41 0f b6 56 01       	movzbl 0x1(%r14),%edx
  4026cb:	83 ea 4b             	sub    $0x4b,%edx
  4026ce:	75 05                	jne    4026d5 <submitr+0x70a>
  4026d0:	41 0f b6 56 02       	movzbl 0x2(%r14),%edx
  4026d5:	85 d2                	test   %edx,%edx
  4026d7:	0f 95 c0             	setne  %al
  4026da:	0f b6 c0             	movzbl %al,%eax
  4026dd:	f7 d8                	neg    %eax
  4026df:	e9 3d 01 00 00       	jmpq   402821 <submitr+0x856>
  4026e4:	b8 00 00 00 00       	mov    $0x0,%eax
  4026e9:	e9 33 01 00 00       	jmpq   402821 <submitr+0x856>
  4026ee:	4d 89 f9             	mov    %r15,%r9
  4026f1:	4c 8d 84 24 30 40 00 	lea    0x4030(%rsp),%r8
  4026f8:	00 
  4026f9:	48 8b 0c 24          	mov    (%rsp),%rcx
  4026fd:	48 8b 54 24 08       	mov    0x8(%rsp),%rdx
  402702:	be 18 34 40 00       	mov    $0x403418,%esi
  402707:	48 8d bc 24 30 60 00 	lea    0x6030(%rsp),%rdi
  40270e:	00 
  40270f:	b8 00 00 00 00       	mov    $0x0,%eax
  402714:	e8 c7 e6 ff ff       	callq  400de0 <sprintf@plt>
  402719:	48 8d bc 24 30 60 00 	lea    0x6030(%rsp),%rdi
  402720:	00 
  402721:	b8 00 00 00 00       	mov    $0x0,%eax
  402726:	48 c7 c1 ff ff ff ff 	mov    $0xffffffffffffffff,%rcx
  40272d:	f2 ae                	repnz scas %es:(%rdi),%al
  40272f:	48 f7 d1             	not    %rcx
  402732:	48 83 e9 01          	sub    $0x1,%rcx
  402736:	49 89 cd             	mov    %rcx,%r13
  402739:	0f 84 a1 fc ff ff    	je     4023e0 <submitr+0x415>
  40273f:	48 89 cb             	mov    %rcx,%rbx
  402742:	48 8d ac 24 30 60 00 	lea    0x6030(%rsp),%rbp
  402749:	00 
  40274a:	e9 f1 fb ff ff       	jmpq   402340 <submitr+0x375>
  40274f:	48 b8 45 72 72 6f 72 	movabs $0x52203a726f727245,%rax
  402756:	3a 20 52 
  402759:	49 89 06             	mov    %rax,(%r14)
  40275c:	48 b8 65 73 75 6c 74 	movabs $0x747320746c757365,%rax
  402763:	20 73 74 
  402766:	49 89 46 08          	mov    %rax,0x8(%r14)
  40276a:	48 b8 72 69 6e 67 20 	movabs $0x6e6f6320676e6972,%rax
  402771:	63 6f 6e 
  402774:	49 89 46 10          	mov    %rax,0x10(%r14)
  402778:	48 b8 74 61 69 6e 73 	movabs $0x6e6120736e696174,%rax
  40277f:	20 61 6e 
  402782:	49 89 46 18          	mov    %rax,0x18(%r14)
  402786:	48 b8 20 69 6c 6c 65 	movabs $0x6c6167656c6c6920,%rax
  40278d:	67 61 6c 
  402790:	49 89 46 20          	mov    %rax,0x20(%r14)
  402794:	48 b8 20 6f 72 20 75 	movabs $0x72706e7520726f20,%rax
  40279b:	6e 70 72 
  40279e:	49 89 46 28          	mov    %rax,0x28(%r14)
  4027a2:	48 b8 69 6e 74 61 62 	movabs $0x20656c6261746e69,%rax
  4027a9:	6c 65 20 
  4027ac:	49 89 46 30          	mov    %rax,0x30(%r14)
  4027b0:	48 b8 63 68 61 72 61 	movabs $0x6574636172616863,%rax
  4027b7:	63 74 65 
  4027ba:	49 89 46 38          	mov    %rax,0x38(%r14)
  4027be:	66 41 c7 46 40 72 2e 	movw   $0x2e72,0x40(%r14)
  4027c5:	41 c6 46 42 00       	movb   $0x0,0x42(%r14)
  4027ca:	44 89 e7             	mov    %r12d,%edi
  4027cd:	e8 de e4 ff ff       	callq  400cb0 <close@plt>
  4027d2:	b8 ff ff ff ff       	mov    $0xffffffff,%eax
  4027d7:	eb 48                	jmp    402821 <submitr+0x856>
  4027d9:	bf 70 34 40 00       	mov    $0x403470,%edi
  4027de:	b9 05 00 00 00       	mov    $0x5,%ecx
  4027e3:	4c 89 f6             	mov    %r14,%rsi
  4027e6:	f3 a6                	repz cmpsb %es:(%rdi),%ds:(%rsi)
  4027e8:	40 0f 97 c6          	seta   %sil
  4027ec:	0f 92 c1             	setb   %cl
  4027ef:	b8 00 00 00 00       	mov    $0x0,%eax
  4027f4:	40 38 ce             	cmp    %cl,%sil
  4027f7:	0f 85 d8 fe ff ff    	jne    4026d5 <submitr+0x70a>
  4027fd:	eb 22                	jmp    402821 <submitr+0x856>
  4027ff:	bf 70 34 40 00       	mov    $0x403470,%edi
  402804:	b9 05 00 00 00       	mov    $0x5,%ecx
  402809:	4c 89 f6             	mov    %r14,%rsi
  40280c:	f3 a6                	repz cmpsb %es:(%rdi),%ds:(%rsi)
  40280e:	0f 97 c1             	seta   %cl
  402811:	0f 92 c2             	setb   %dl
  402814:	b8 00 00 00 00       	mov    $0x0,%eax
  402819:	38 d1                	cmp    %dl,%cl
  40281b:	0f 85 a5 fe ff ff    	jne    4026c6 <submitr+0x6fb>
  402821:	48 81 c4 58 a0 00 00 	add    $0xa058,%rsp
  402828:	5b                   	pop    %rbx
  402829:	5d                   	pop    %rbp
  40282a:	41 5c                	pop    %r12
  40282c:	41 5d                	pop    %r13
  40282e:	41 5e                	pop    %r14
  402830:	41 5f                	pop    %r15
  402832:	c3                   	retq   

0000000000402833 <init_timeout>:
  402833:	53                   	push   %rbx
  402834:	89 fb                	mov    %edi,%ebx
  402836:	85 ff                	test   %edi,%edi
  402838:	74 1e                	je     402858 <init_timeout+0x25>
  40283a:	be 90 1e 40 00       	mov    $0x401e90,%esi
  40283f:	bf 0e 00 00 00       	mov    $0xe,%edi
  402844:	e8 97 e4 ff ff       	callq  400ce0 <signal@plt>
  402849:	85 db                	test   %ebx,%ebx
  40284b:	bf 00 00 00 00       	mov    $0x0,%edi
  402850:	0f 49 fb             	cmovns %ebx,%edi
  402853:	e8 48 e4 ff ff       	callq  400ca0 <alarm@plt>
  402858:	5b                   	pop    %rbx
  402859:	c3                   	retq   

000000000040285a <init_driver>:
  40285a:	55                   	push   %rbp
  40285b:	53                   	push   %rbx
  40285c:	48 83 ec 18          	sub    $0x18,%rsp
  402860:	48 89 fd             	mov    %rdi,%rbp
  402863:	be 01 00 00 00       	mov    $0x1,%esi
  402868:	bf 0d 00 00 00       	mov    $0xd,%edi
  40286d:	e8 6e e4 ff ff       	callq  400ce0 <signal@plt>
  402872:	be 01 00 00 00       	mov    $0x1,%esi
  402877:	bf 1d 00 00 00       	mov    $0x1d,%edi
  40287c:	e8 5f e4 ff ff       	callq  400ce0 <signal@plt>
  402881:	be 01 00 00 00       	mov    $0x1,%esi
  402886:	bf 1d 00 00 00       	mov    $0x1d,%edi
  40288b:	e8 50 e4 ff ff       	callq  400ce0 <signal@plt>
  402890:	ba 00 00 00 00       	mov    $0x0,%edx
  402895:	be 01 00 00 00       	mov    $0x1,%esi
  40289a:	bf 02 00 00 00       	mov    $0x2,%edi
  40289f:	e8 6c e5 ff ff       	callq  400e10 <socket@plt>
  4028a4:	89 c3                	mov    %eax,%ebx
  4028a6:	85 c0                	test   %eax,%eax
  4028a8:	79 4f                	jns    4028f9 <init_driver+0x9f>
  4028aa:	48 b8 45 72 72 6f 72 	movabs $0x43203a726f727245,%rax
  4028b1:	3a 20 43 
  4028b4:	48 89 45 00          	mov    %rax,0x0(%rbp)
  4028b8:	48 b8 6c 69 65 6e 74 	movabs $0x6e7520746e65696c,%rax
  4028bf:	20 75 6e 
  4028c2:	48 89 45 08          	mov    %rax,0x8(%rbp)
  4028c6:	48 b8 61 62 6c 65 20 	movabs $0x206f7420656c6261,%rax
  4028cd:	74 6f 20 
  4028d0:	48 89 45 10          	mov    %rax,0x10(%rbp)
  4028d4:	48 b8 63 72 65 61 74 	movabs $0x7320657461657263,%rax
  4028db:	65 20 73 
  4028de:	48 89 45 18          	mov    %rax,0x18(%rbp)
  4028e2:	c7 45 20 6f 63 6b 65 	movl   $0x656b636f,0x20(%rbp)
  4028e9:	66 c7 45 24 74 00    	movw   $0x74,0x24(%rbp)
  4028ef:	b8 ff ff ff ff       	mov    $0xffffffff,%eax
  4028f4:	e9 23 01 00 00       	jmpq   402a1c <init_driver+0x1c2>
  4028f9:	bf bd 2f 40 00       	mov    $0x402fbd,%edi
  4028fe:	e8 ed e3 ff ff       	callq  400cf0 <gethostbyname@plt>
  402903:	48 85 c0             	test   %rax,%rax
  402906:	75 68                	jne    402970 <init_driver+0x116>
  402908:	48 b8 45 72 72 6f 72 	movabs $0x44203a726f727245,%rax
  40290f:	3a 20 44 
  402912:	48 89 45 00          	mov    %rax,0x0(%rbp)
  402916:	48 b8 4e 53 20 69 73 	movabs $0x6e7520736920534e,%rax
  40291d:	20 75 6e 
  402920:	48 89 45 08          	mov    %rax,0x8(%rbp)
  402924:	48 b8 61 62 6c 65 20 	movabs $0x206f7420656c6261,%rax
  40292b:	74 6f 20 
  40292e:	48 89 45 10          	mov    %rax,0x10(%rbp)
  402932:	48 b8 72 65 73 6f 6c 	movabs $0x2065766c6f736572,%rax
  402939:	76 65 20 
  40293c:	48 89 45 18          	mov    %rax,0x18(%rbp)
  402940:	48 b8 73 65 72 76 65 	movabs $0x6120726576726573,%rax
  402947:	72 20 61 
  40294a:	48 89 45 20          	mov    %rax,0x20(%rbp)
  40294e:	c7 45 28 64 64 72 65 	movl   $0x65726464,0x28(%rbp)
  402955:	66 c7 45 2c 73 73    	movw   $0x7373,0x2c(%rbp)
  40295b:	c6 45 2e 00          	movb   $0x0,0x2e(%rbp)
  40295f:	89 df                	mov    %ebx,%edi
  402961:	e8 4a e3 ff ff       	callq  400cb0 <close@plt>
  402966:	b8 ff ff ff ff       	mov    $0xffffffff,%eax
  40296b:	e9 ac 00 00 00       	jmpq   402a1c <init_driver+0x1c2>
  402970:	48 c7 04 24 00 00 00 	movq   $0x0,(%rsp)
  402977:	00 
  402978:	48 c7 44 24 08 00 00 	movq   $0x0,0x8(%rsp)
  40297f:	00 00 
  402981:	66 c7 04 24 02 00    	movw   $0x2,(%rsp)
  402987:	48 63 50 14          	movslq 0x14(%rax),%rdx
  40298b:	48 8d 74 24 04       	lea    0x4(%rsp),%rsi
  402990:	48 8b 40 18          	mov    0x18(%rax),%rax
  402994:	48 8b 38             	mov    (%rax),%rdi
  402997:	e8 f4 e3 ff ff       	callq  400d90 <bcopy@plt>
  40299c:	66 c7 44 24 02 3c 9a 	movw   $0x9a3c,0x2(%rsp)
  4029a3:	ba 10 00 00 00       	mov    $0x10,%edx
  4029a8:	48 89 e6             	mov    %rsp,%rsi
  4029ab:	89 df                	mov    %ebx,%edi
  4029ad:	e8 4e e4 ff ff       	callq  400e00 <connect@plt>
  4029b2:	85 c0                	test   %eax,%eax
  4029b4:	79 50                	jns    402a06 <init_driver+0x1ac>
  4029b6:	48 b8 45 72 72 6f 72 	movabs $0x55203a726f727245,%rax
  4029bd:	3a 20 55 
  4029c0:	48 89 45 00          	mov    %rax,0x0(%rbp)
  4029c4:	48 b8 6e 61 62 6c 65 	movabs $0x6f7420656c62616e,%rax
  4029cb:	20 74 6f 
  4029ce:	48 89 45 08          	mov    %rax,0x8(%rbp)
  4029d2:	48 b8 20 63 6f 6e 6e 	movabs $0x7463656e6e6f6320,%rax
  4029d9:	65 63 74 
  4029dc:	48 89 45 10          	mov    %rax,0x10(%rbp)
  4029e0:	48 b8 20 74 6f 20 73 	movabs $0x76726573206f7420,%rax
  4029e7:	65 72 76 
  4029ea:	48 89 45 18          	mov    %rax,0x18(%rbp)
  4029ee:	66 c7 45 20 65 72    	movw   $0x7265,0x20(%rbp)
  4029f4:	c6 45 22 00          	movb   $0x0,0x22(%rbp)
  4029f8:	89 df                	mov    %ebx,%edi
  4029fa:	e8 b1 e2 ff ff       	callq  400cb0 <close@plt>
  4029ff:	b8 ff ff ff ff       	mov    $0xffffffff,%eax
  402a04:	eb 16                	jmp    402a1c <init_driver+0x1c2>
  402a06:	89 df                	mov    %ebx,%edi
  402a08:	e8 a3 e2 ff ff       	callq  400cb0 <close@plt>
  402a0d:	66 c7 45 00 4f 4b    	movw   $0x4b4f,0x0(%rbp)
  402a13:	c6 45 02 00          	movb   $0x0,0x2(%rbp)
  402a17:	b8 00 00 00 00       	mov    $0x0,%eax
  402a1c:	48 83 c4 18          	add    $0x18,%rsp
  402a20:	5b                   	pop    %rbx
  402a21:	5d                   	pop    %rbp
  402a22:	c3                   	retq   

0000000000402a23 <driver_post>:
  402a23:	53                   	push   %rbx
  402a24:	48 83 ec 10          	sub    $0x10,%rsp
  402a28:	4c 89 cb             	mov    %r9,%rbx
  402a2b:	45 85 c0             	test   %r8d,%r8d
  402a2e:	74 22                	je     402a52 <driver_post+0x2f>
  402a30:	48 89 ce             	mov    %rcx,%rsi
  402a33:	bf 75 34 40 00       	mov    $0x403475,%edi
  402a38:	b8 00 00 00 00       	mov    $0x0,%eax
  402a3d:	e8 3e e2 ff ff       	callq  400c80 <printf@plt>
  402a42:	66 c7 03 4f 4b       	movw   $0x4b4f,(%rbx)
  402a47:	c6 43 02 00          	movb   $0x0,0x2(%rbx)
  402a4b:	b8 00 00 00 00       	mov    $0x0,%eax
  402a50:	eb 39                	jmp    402a8b <driver_post+0x68>
  402a52:	48 85 ff             	test   %rdi,%rdi
  402a55:	74 26                	je     402a7d <driver_post+0x5a>
  402a57:	80 3f 00             	cmpb   $0x0,(%rdi)
  402a5a:	74 21                	je     402a7d <driver_post+0x5a>
  402a5c:	4c 89 0c 24          	mov    %r9,(%rsp)
  402a60:	49 89 c9             	mov    %rcx,%r9
  402a63:	49 89 d0             	mov    %rdx,%r8
  402a66:	48 89 f9             	mov    %rdi,%rcx
  402a69:	48 89 f2             	mov    %rsi,%rdx
  402a6c:	be 9a 3c 00 00       	mov    $0x3c9a,%esi
  402a71:	bf bd 2f 40 00       	mov    $0x402fbd,%edi
  402a76:	e8 50 f5 ff ff       	callq  401fcb <submitr>
  402a7b:	eb 0e                	jmp    402a8b <driver_post+0x68>
  402a7d:	66 c7 03 4f 4b       	movw   $0x4b4f,(%rbx)
  402a82:	c6 43 02 00          	movb   $0x0,0x2(%rbx)
  402a86:	b8 00 00 00 00       	mov    $0x0,%eax
  402a8b:	48 83 c4 10          	add    $0x10,%rsp
  402a8f:	5b                   	pop    %rbx
  402a90:	c3                   	retq   
  402a91:	66 2e 0f 1f 84 00 00 	nopw   %cs:0x0(%rax,%rax,1)
  402a98:	00 00 00 
  402a9b:	0f 1f 44 00 00       	nopl   0x0(%rax,%rax,1)

0000000000402aa0 <check>:
  402aa0:	89 fa                	mov    %edi,%edx
  402aa2:	c1 ea 1c             	shr    $0x1c,%edx
  402aa5:	b8 00 00 00 00       	mov    $0x0,%eax
  402aaa:	85 d2                	test   %edx,%edx
  402aac:	74 2e                	je     402adc <check+0x3c>
  402aae:	40 80 ff 0a          	cmp    $0xa,%dil
  402ab2:	74 17                	je     402acb <check+0x2b>
  402ab4:	b9 08 00 00 00       	mov    $0x8,%ecx
  402ab9:	89 f8                	mov    %edi,%eax
  402abb:	d3 e8                	shr    %cl,%eax
  402abd:	3c 0a                	cmp    $0xa,%al
  402abf:	74 10                	je     402ad1 <check+0x31>
  402ac1:	83 c1 08             	add    $0x8,%ecx
  402ac4:	83 f9 20             	cmp    $0x20,%ecx
  402ac7:	75 f0                	jne    402ab9 <check+0x19>
  402ac9:	eb 0c                	jmp    402ad7 <check+0x37>
  402acb:	b8 00 00 00 00       	mov    $0x0,%eax
  402ad0:	c3                   	retq   
  402ad1:	b8 00 00 00 00       	mov    $0x0,%eax
  402ad6:	c3                   	retq   
  402ad7:	b8 01 00 00 00       	mov    $0x1,%eax
  402adc:	f3 c3                	repz retq 

0000000000402ade <gencookie>:
  402ade:	53                   	push   %rbx
  402adf:	83 c7 01             	add    $0x1,%edi
  402ae2:	e8 39 e1 ff ff       	callq  400c20 <srandom@plt>
  402ae7:	e8 64 e2 ff ff       	callq  400d50 <random@plt>
  402aec:	89 c3                	mov    %eax,%ebx
  402aee:	89 c7                	mov    %eax,%edi
  402af0:	e8 ab ff ff ff       	callq  402aa0 <check>
  402af5:	85 c0                	test   %eax,%eax
  402af7:	74 ee                	je     402ae7 <gencookie+0x9>
  402af9:	89 d8                	mov    %ebx,%eax
  402afb:	5b                   	pop    %rbx
  402afc:	c3                   	retq   
  402afd:	0f 1f 00             	nopl   (%rax)

0000000000402b00 <__libc_csu_init>:
  402b00:	41 57                	push   %r15
  402b02:	41 89 ff             	mov    %edi,%r15d
  402b05:	41 56                	push   %r14
  402b07:	49 89 f6             	mov    %rsi,%r14
  402b0a:	41 55                	push   %r13
  402b0c:	49 89 d5             	mov    %rdx,%r13
  402b0f:	41 54                	push   %r12
  402b11:	4c 8d 25 f8 12 20 00 	lea    0x2012f8(%rip),%r12        # 603e10 <__frame_dummy_init_array_entry>
  402b18:	55                   	push   %rbp
  402b19:	48 8d 2d f8 12 20 00 	lea    0x2012f8(%rip),%rbp        # 603e18 <__init_array_end>
  402b20:	53                   	push   %rbx
  402b21:	4c 29 e5             	sub    %r12,%rbp
  402b24:	31 db                	xor    %ebx,%ebx
  402b26:	48 c1 fd 03          	sar    $0x3,%rbp
  402b2a:	48 83 ec 08          	sub    $0x8,%rsp
  402b2e:	e8 95 e0 ff ff       	callq  400bc8 <_init>
  402b33:	48 85 ed             	test   %rbp,%rbp
  402b36:	74 1e                	je     402b56 <__libc_csu_init+0x56>
  402b38:	0f 1f 84 00 00 00 00 	nopl   0x0(%rax,%rax,1)
  402b3f:	00 
  402b40:	4c 89 ea             	mov    %r13,%rdx
  402b43:	4c 89 f6             	mov    %r14,%rsi
  402b46:	44 89 ff             	mov    %r15d,%edi
  402b49:	41 ff 14 dc          	callq  *(%r12,%rbx,8)
  402b4d:	48 83 c3 01          	add    $0x1,%rbx
  402b51:	48 39 eb             	cmp    %rbp,%rbx
  402b54:	75 ea                	jne    402b40 <__libc_csu_init+0x40>
  402b56:	48 83 c4 08          	add    $0x8,%rsp
  402b5a:	5b                   	pop    %rbx
  402b5b:	5d                   	pop    %rbp
  402b5c:	41 5c                	pop    %r12
  402b5e:	41 5d                	pop    %r13
  402b60:	41 5e                	pop    %r14
  402b62:	41 5f                	pop    %r15
  402b64:	c3                   	retq   
  402b65:	90                   	nop
  402b66:	66 2e 0f 1f 84 00 00 	nopw   %cs:0x0(%rax,%rax,1)
  402b6d:	00 00 00 

0000000000402b70 <__libc_csu_fini>:
  402b70:	f3 c3                	repz retq 

Disassembly of section .fini:

0000000000402b74 <_fini>:
  402b74:	48 83 ec 08          	sub    $0x8,%rsp
  402b78:	48 83 c4 08          	add    $0x8,%rsp
  402b7c:	c3                   	retq 
