  402c74:	75 ea                	jne    402c60 <__libc_csu_init+0x40>
  402c76:	48 83 c4 08          	add    $0x8,%rsp
  402c7a:	5b                   	pop    %rbx
  402c7b:	5d                   	pop    %rbp
  402c7c:	41 5c                	pop    %r12
  402c7e:	41 5d                	pop    %r13
  402c80:	41 5e                	pop    %r14
  402c82:	41 5f                	pop    %r15
  402c84:	c3                   	retq   
  402c85:	90                   	nop
  402c86:	66 2e 0f 1f 84 00 00 	nopw   %cs:0x0(%rax,%rax,1)
  402c8d:	00 00 00 

0000000000402c90 <__libc_csu_fini>:
  402c90:	f3 c3                	repz retq 

Disassembly of section .fini:

0000000000402c94 <_fini>:
  402c94:	48 83 ec 08          	sub    $0x8,%rsp
  402c98:	48 83 c4 08          	add    $0x8,%rsp
  402c9c:	c3                   	retq   
bash-4.2$ clear

bash-4.2$ objdump -d rtarget

rtarget:     file format elf64-x86-64


Disassembly of section .init:

0000000000400bc8 <_init>:
  400bc8:	48 83 ec 08          	sub    $0x8,%rsp
  400bcc:	48 8b 05 25 44 20 00 	mov    0x204425(%rip),%rax        # 604ff8 <_DYNAMIC+0x1d0>
  400bd3:	48 85 c0             	test   %rax,%rax
  400bd6:	74 05                	je     400bdd <_init+0x15>
  400bd8:	e8 33 01 00 00       	callq  400d10 <__gmon_start__@plt>
  400bdd:	48 83 c4 08          	add    $0x8,%rsp
  400be1:	c3                   	retq   

Disassembly of section .plt:

0000000000400bf0 <strcasecmp@plt-0x10>:
  400bf0:	ff 35 12 44 20 00    	pushq  0x204412(%rip)        # 605008 <_GLOBAL_OFFSET_TABLE_+0x8>
  400bf6:	ff 25 14 44 20 00    	jmpq   *0x204414(%rip)        # 605010 <_GLOBAL_OFFSET_TABLE_+0x10>
  400bfc:	0f 1f 40 00          	nopl   0x0(%rax)

0000000000400c00 <strcasecmp@plt>:
  400c00:	ff 25 12 44 20 00    	jmpq   *0x204412(%rip)        # 605018 <_GLOBAL_OFFSET_TABLE_+0x18>
  400c06:	68 00 00 00 00       	pushq  $0x0
  400c0b:	e9 e0 ff ff ff       	jmpq   400bf0 <_init+0x28>

0000000000400c10 <__errno_location@plt>:
  400c10:	ff 25 0a 44 20 00    	jmpq   *0x20440a(%rip)        # 605020 <_GLOBAL_OFFSET_TABLE_+0x20>
  400c16:	68 01 00 00 00       	pushq  $0x1
  400c1b:	e9 d0 ff ff ff       	jmpq   400bf0 <_init+0x28>

0000000000400c20 <srandom@plt>:
  400c20:	ff 25 02 44 20 00    	jmpq   *0x204402(%rip)        # 605028 <_GLOBAL_OFFSET_TABLE_+0x28>
  400c26:	68 02 00 00 00       	pushq  $0x2
  400c2b:	e9 c0 ff ff ff       	jmpq   400bf0 <_init+0x28>

0000000000400c30 <strncmp@plt>:
  400c30:	ff 25 fa 43 20 00    	jmpq   *0x2043fa(%rip)        # 605030 <_GLOBAL_OFFSET_TABLE_+0x30>
  400c36:	68 03 00 00 00       	pushq  $0x3
  400c3b:	e9 b0 ff ff ff       	jmpq   400bf0 <_init+0x28>

0000000000400c40 <strcpy@plt>:
  400c40:	ff 25 f2 43 20 00    	jmpq   *0x2043f2(%rip)        # 605038 <_GLOBAL_OFFSET_TABLE_+0x38>
  400c46:	68 04 00 00 00       	pushq  $0x4
  400c4b:	e9 a0 ff ff ff       	jmpq   400bf0 <_init+0x28>

0000000000400c50 <puts@plt>:
  400c50:	ff 25 ea 43 20 00    	jmpq   *0x2043ea(%rip)        # 605040 <_GLOBAL_OFFSET_TABLE_+0x40>
  400c56:	68 05 00 00 00       	pushq  $0x5
  400c5b:	e9 90 ff ff ff       	jmpq   400bf0 <_init+0x28>

0000000000400c60 <write@plt>:
  400c60:	ff 25 e2 43 20 00    	jmpq   *0x2043e2(%rip)        # 605048 <_GLOBAL_OFFSET_TABLE_+0x48>
  400c66:	68 06 00 00 00       	pushq  $0x6
  400c6b:	e9 80 ff ff ff       	jmpq   400bf0 <_init+0x28>

0000000000400c70 <mmap@plt>:
  400c70:	ff 25 da 43 20 00    	jmpq   *0x2043da(%rip)        # 605050 <_GLOBAL_OFFSET_TABLE_+0x50>
  400c76:	68 07 00 00 00       	pushq  $0x7
  400c7b:	e9 70 ff ff ff       	jmpq   400bf0 <_init+0x28>

0000000000400c80 <printf@plt>:
  400c80:	ff 25 d2 43 20 00    	jmpq   *0x2043d2(%rip)        # 605058 <_GLOBAL_OFFSET_TABLE_+0x58>
  400c86:	68 08 00 00 00       	pushq  $0x8
  400c8b:	e9 60 ff ff ff       	jmpq   400bf0 <_init+0x28>

0000000000400c90 <memset@plt>:
  400c90:	ff 25 ca 43 20 00    	jmpq   *0x2043ca(%rip)        # 605060 <_GLOBAL_OFFSET_TABLE_+0x60>
  400c96:	68 09 00 00 00       	pushq  $0x9
  400c9b:	e9 50 ff ff ff       	jmpq   400bf0 <_init+0x28>

0000000000400ca0 <alarm@plt>:
  400ca0:	ff 25 c2 43 20 00    	jmpq   *0x2043c2(%rip)        # 605068 <_GLOBAL_OFFSET_TABLE_+0x68>
  400ca6:	68 0a 00 00 00       	pushq  $0xa
  400cab:	e9 40 ff ff ff       	jmpq   400bf0 <_init+0x28>

0000000000400cb0 <close@plt>:
  400cb0:	ff 25 ba 43 20 00    	jmpq   *0x2043ba(%rip)        # 605070 <_GLOBAL_OFFSET_TABLE_+0x70>
  400cb6:	68 0b 00 00 00       	pushq  $0xb
  400cbb:	e9 30 ff ff ff       	jmpq   400bf0 <_init+0x28>

0000000000400cc0 <read@plt>:
  400cc0:	ff 25 b2 43 20 00    	jmpq   *0x2043b2(%rip)        # 605078 <_GLOBAL_OFFSET_TABLE_+0x78>
  400cc6:	68 0c 00 00 00       	pushq  $0xc
  400ccb:	e9 20 ff ff ff       	jmpq   400bf0 <_init+0x28>

0000000000400cd0 <__libc_start_main@plt>:
  400cd0:	ff 25 aa 43 20 00    	jmpq   *0x2043aa(%rip)        # 605080 <_GLOBAL_OFFSET_TABLE_+0x80>
  400cd6:	68 0d 00 00 00       	pushq  $0xd
  400cdb:	e9 10 ff ff ff       	jmpq   400bf0 <_init+0x28>

0000000000400ce0 <signal@plt>:
  400ce0:	ff 25 a2 43 20 00    	jmpq   *0x2043a2(%rip)        # 605088 <_GLOBAL_OFFSET_TABLE_+0x88>
  400ce6:	68 0e 00 00 00       	pushq  $0xe
  400ceb:	e9 00 ff ff ff       	jmpq   400bf0 <_init+0x28>

0000000000400cf0 <gethostbyname@plt>:
  400cf0:	ff 25 9a 43 20 00    	jmpq   *0x20439a(%rip)        # 605090 <_GLOBAL_OFFSET_TABLE_+0x90>
  400cf6:	68 0f 00 00 00       	pushq  $0xf
  400cfb:	e9 f0 fe ff ff       	jmpq   400bf0 <_init+0x28>

0000000000400d00 <fprintf@plt>:
  400d00:	ff 25 92 43 20 00    	jmpq   *0x204392(%rip)        # 605098 <_GLOBAL_OFFSET_TABLE_+0x98>
  400d06:	68 10 00 00 00       	pushq  $0x10
  400d0b:	e9 e0 fe ff ff       	jmpq   400bf0 <_init+0x28>

0000000000400d10 <__gmon_start__@plt>:
  400d10:	ff 25 8a 43 20 00    	jmpq   *0x20438a(%rip)        # 6050a0 <_GLOBAL_OFFSET_TABLE_+0xa0>
  400d16:	68 11 00 00 00       	pushq  $0x11
  400d1b:	e9 d0 fe ff ff       	jmpq   400bf0 <_init+0x28>

0000000000400d20 <strtol@plt>:
  400d20:	ff 25 82 43 20 00    	jmpq   *0x204382(%rip)        # 6050a8 <_GLOBAL_OFFSET_TABLE_+0xa8>
  400d26:	68 12 00 00 00       	pushq  $0x12
  400d2b:	e9 c0 fe ff ff       	jmpq   400bf0 <_init+0x28>

0000000000400d30 <memcpy@plt>:
  400d30:	ff 25 7a 43 20 00    	jmpq   *0x20437a(%rip)        # 6050b0 <_GLOBAL_OFFSET_TABLE_+0xb0>
  400d36:	68 13 00 00 00       	pushq  $0x13
  400d3b:	e9 b0 fe ff ff       	jmpq   400bf0 <_init+0x28>

0000000000400d40 <time@plt>:
  400d40:	ff 25 72 43 20 00    	jmpq   *0x204372(%rip)        # 6050b8 <_GLOBAL_OFFSET_TABLE_+0xb8>
  400d46:	68 14 00 00 00       	pushq  $0x14
  400d4b:	e9 a0 fe ff ff       	jmpq   400bf0 <_init+0x28>

0000000000400d50 <random@plt>:
  400d50:	ff 25 6a 43 20 00    	jmpq   *0x20436a(%rip)        # 6050c0 <_GLOBAL_OFFSET_TABLE_+0xc0>
  400d56:	68 15 00 00 00       	pushq  $0x15
  400d5b:	e9 90 fe ff ff       	jmpq   400bf0 <_init+0x28>

0000000000400d60 <_IO_getc@plt>:
  400d60:	ff 25 62 43 20 00    	jmpq   *0x204362(%rip)        # 6050c8 <_GLOBAL_OFFSET_TABLE_+0xc8>
  400d66:	68 16 00 00 00       	pushq  $0x16
  400d6b:	e9 80 fe ff ff       	jmpq   400bf0 <_init+0x28>

0000000000400d70 <__isoc99_sscanf@plt>:
  400d70:	ff 25 5a 43 20 00    	jmpq   *0x20435a(%rip)        # 6050d0 <_GLOBAL_OFFSET_TABLE_+0xd0>
  400d76:	68 17 00 00 00       	pushq  $0x17
  400d7b:	e9 70 fe ff ff       	jmpq   400bf0 <_init+0x28>

0000000000400d80 <munmap@plt>:
  400d80:	ff 25 52 43 20 00    	jmpq   *0x204352(%rip)        # 6050d8 <_GLOBAL_OFFSET_TABLE_+0xd8>
  400d86:	68 18 00 00 00       	pushq  $0x18
  400d8b:	e9 60 fe ff ff       	jmpq   400bf0 <_init+0x28>

0000000000400d90 <bcopy@plt>:
  400d90:	ff 25 4a 43 20 00    	jmpq   *0x20434a(%rip)        # 6050e0 <_GLOBAL_OFFSET_TABLE_+0xe0>
  400d96:	68 19 00 00 00       	pushq  $0x19
  400d9b:	e9 50 fe ff ff       	jmpq   400bf0 <_init+0x28>

0000000000400da0 <fopen@plt>:
  400da0:	ff 25 42 43 20 00    	jmpq   *0x204342(%rip)        # 6050e8 <_GLOBAL_OFFSET_TABLE_+0xe8>
  400da6:	68 1a 00 00 00       	pushq  $0x1a
  400dab:	e9 40 fe ff ff       	jmpq   400bf0 <_init+0x28>

0000000000400db0 <getopt@plt>:
  400db0:	ff 25 3a 43 20 00    	jmpq   *0x20433a(%rip)        # 6050f0 <_GLOBAL_OFFSET_TABLE_+0xf0>
  400db6:	68 1b 00 00 00       	pushq  $0x1b
  400dbb:	e9 30 fe ff ff       	jmpq   400bf0 <_init+0x28>

0000000000400dc0 <strtoul@plt>:
  400dc0:	ff 25 32 43 20 00    	jmpq   *0x204332(%rip)        # 6050f8 <_GLOBAL_OFFSET_TABLE_+0xf8>
  400dc6:	68 1c 00 00 00       	pushq  $0x1c
  400dcb:	e9 20 fe ff ff       	jmpq   400bf0 <_init+0x28>

0000000000400dd0 <gethostname@plt>:
  400dd0:	ff 25 2a 43 20 00    	jmpq   *0x20432a(%rip)        # 605100 <_GLOBAL_OFFSET_TABLE_+0x100>
  400dd6:	68 1d 00 00 00       	pushq  $0x1d
  400ddb:	e9 10 fe ff ff       	jmpq   400bf0 <_init+0x28>

0000000000400de0 <sprintf@plt>:
  400de0:	ff 25 22 43 20 00    	jmpq   *0x204322(%rip)        # 605108 <_GLOBAL_OFFSET_TABLE_+0x108>
  400de6:	68 1e 00 00 00       	pushq  $0x1e
  400deb:	e9 00 fe ff ff       	jmpq   400bf0 <_init+0x28>

0000000000400df0 <exit@plt>:
  400df0:	ff 25 1a 43 20 00    	jmpq   *0x20431a(%rip)        # 605110 <_GLOBAL_OFFSET_TABLE_+0x110>
  400df6:	68 1f 00 00 00       	pushq  $0x1f
  400dfb:	e9 f0 fd ff ff       	jmpq   400bf0 <_init+0x28>

0000000000400e00 <connect@plt>:
  400e00:	ff 25 12 43 20 00    	jmpq   *0x204312(%rip)        # 605118 <_GLOBAL_OFFSET_TABLE_+0x118>
  400e06:	68 20 00 00 00       	pushq  $0x20
  400e0b:	e9 e0 fd ff ff       	jmpq   400bf0 <_init+0x28>

0000000000400e10 <socket@plt>:
  400e10:	ff 25 0a 43 20 00    	jmpq   *0x20430a(%rip)        # 605120 <_GLOBAL_OFFSET_TABLE_+0x120>
  400e16:	68 21 00 00 00       	pushq  $0x21
  400e1b:	e9 d0 fd ff ff       	jmpq   400bf0 <_init+0x28>

Disassembly of section .text:

0000000000400e20 <_start>:
  400e20:	31 ed                	xor    %ebp,%ebp
  400e22:	49 89 d1             	mov    %rdx,%r9
  400e25:	5e                   	pop    %rsi
  400e26:	48 89 e2             	mov    %rsp,%rdx
  400e29:	48 83 e4 f0          	and    $0xfffffffffffffff0,%rsp
  400e2d:	50                   	push   %rax
  400e2e:	54                   	push   %rsp
  400e2f:	49 c7 c0 90 2c 40 00 	mov    $0x402c90,%r8
  400e36:	48 c7 c1 20 2c 40 00 	mov    $0x402c20,%rcx
  400e3d:	48 c7 c7 da 10 40 00 	mov    $0x4010da,%rdi
  400e44:	e8 87 fe ff ff       	callq  400cd0 <__libc_start_main@plt>
  400e49:	f4                   	hlt    
  400e4a:	66 0f 1f 44 00 00    	nopw   0x0(%rax,%rax,1)

0000000000400e50 <deregister_tm_clones>:
  400e50:	b8 b7 54 60 00       	mov    $0x6054b7,%eax
  400e55:	55                   	push   %rbp
  400e56:	48 2d b0 54 60 00    	sub    $0x6054b0,%rax
  400e5c:	48 83 f8 0e          	cmp    $0xe,%rax
  400e60:	48 89 e5             	mov    %rsp,%rbp
  400e63:	77 02                	ja     400e67 <deregister_tm_clones+0x17>
  400e65:	5d                   	pop    %rbp
  400e66:	c3                   	retq   
  400e67:	b8 00 00 00 00       	mov    $0x0,%eax
  400e6c:	48 85 c0             	test   %rax,%rax
  400e6f:	74 f4                	je     400e65 <deregister_tm_clones+0x15>
  400e71:	5d                   	pop    %rbp
  400e72:	bf b0 54 60 00       	mov    $0x6054b0,%edi
  400e77:	ff e0                	jmpq   *%rax
  400e79:	0f 1f 80 00 00 00 00 	nopl   0x0(%rax)

0000000000400e80 <register_tm_clones>:
  400e80:	b8 b0 54 60 00       	mov    $0x6054b0,%eax
  400e85:	55                   	push   %rbp
  400e86:	48 2d b0 54 60 00    	sub    $0x6054b0,%rax
  400e8c:	48 c1 f8 03          	sar    $0x3,%rax
  400e90:	48 89 e5             	mov    %rsp,%rbp
  400e93:	48 89 c2             	mov    %rax,%rdx
  400e96:	48 c1 ea 3f          	shr    $0x3f,%rdx
  400e9a:	48 01 d0             	add    %rdx,%rax
  400e9d:	48 d1 f8             	sar    %rax
  400ea0:	75 02                	jne    400ea4 <register_tm_clones+0x24>
  400ea2:	5d                   	pop    %rbp
  400ea3:	c3                   	retq   
  400ea4:	ba 00 00 00 00       	mov    $0x0,%edx
  400ea9:	48 85 d2             	test   %rdx,%rdx
  400eac:	74 f4                	je     400ea2 <register_tm_clones+0x22>
  400eae:	5d                   	pop    %rbp
  400eaf:	48 89 c6             	mov    %rax,%rsi
  400eb2:	bf b0 54 60 00       	mov    $0x6054b0,%edi
  400eb7:	ff e2                	jmpq   *%rdx
  400eb9:	0f 1f 80 00 00 00 00 	nopl   0x0(%rax)

0000000000400ec0 <__do_global_dtors_aux>:
  400ec0:	80 3d 11 46 20 00 00 	cmpb   $0x0,0x204611(%rip)        # 6054d8 <completed.6344>
  400ec7:	75 11                	jne    400eda <__do_global_dtors_aux+0x1a>
  400ec9:	55                   	push   %rbp
  400eca:	48 89 e5             	mov    %rsp,%rbp
  400ecd:	e8 7e ff ff ff       	callq  400e50 <deregister_tm_clones>
  400ed2:	5d                   	pop    %rbp
  400ed3:	c6 05 fe 45 20 00 01 	movb   $0x1,0x2045fe(%rip)        # 6054d8 <completed.6344>
  400eda:	f3 c3                	repz retq 
  400edc:	0f 1f 40 00          	nopl   0x0(%rax)

0000000000400ee0 <frame_dummy>:
  400ee0:	48 83 3d 38 3f 20 00 	cmpq   $0x0,0x203f38(%rip)        # 604e20 <__JCR_END__>
  400ee7:	00 
  400ee8:	74 1e                	je     400f08 <frame_dummy+0x28>
  400eea:	b8 00 00 00 00       	mov    $0x0,%eax
  400eef:	48 85 c0             	test   %rax,%rax
  400ef2:	74 14                	je     400f08 <frame_dummy+0x28>
  400ef4:	55                   	push   %rbp
  400ef5:	bf 20 4e 60 00       	mov    $0x604e20,%edi
  400efa:	48 89 e5             	mov    %rsp,%rbp
  400efd:	ff d0                	callq  *%rax
  400eff:	5d                   	pop    %rbp
  400f00:	e9 7b ff ff ff       	jmpq   400e80 <register_tm_clones>
  400f05:	0f 1f 00             	nopl   (%rax)
  400f08:	e9 73 ff ff ff       	jmpq   400e80 <register_tm_clones>

0000000000400f0d <usage>:
  400f0d:	48 83 ec 08          	sub    $0x8,%rsp
  400f11:	48 89 fe             	mov    %rdi,%rsi
  400f14:	83 3d ed 45 20 00 00 	cmpl   $0x0,0x2045ed(%rip)        # 605508 <is_checker>
  400f1b:	74 39                	je     400f56 <usage+0x49>
  400f1d:	bf b0 2c 40 00       	mov    $0x402cb0,%edi
  400f22:	b8 00 00 00 00       	mov    $0x0,%eax
  400f27:	e8 54 fd ff ff       	callq  400c80 <printf@plt>
  400f2c:	bf e8 2c 40 00       	mov    $0x402ce8,%edi
  400f31:	e8 1a fd ff ff       	callq  400c50 <puts@plt>
  400f36:	bf 60 2e 40 00       	mov    $0x402e60,%edi
  400f3b:	e8 10 fd ff ff       	callq  400c50 <puts@plt>
  400f40:	bf 10 2d 40 00       	mov    $0x402d10,%edi
  400f45:	e8 06 fd ff ff       	callq  400c50 <puts@plt>
  400f4a:	bf 7a 2e 40 00       	mov    $0x402e7a,%edi
  400f4f:	e8 fc fc ff ff       	callq  400c50 <puts@plt>
  400f54:	eb 2d                	jmp    400f83 <usage+0x76>
  400f56:	bf 96 2e 40 00       	mov    $0x402e96,%edi
  400f5b:	b8 00 00 00 00       	mov    $0x0,%eax
  400f60:	e8 1b fd ff ff       	callq  400c80 <printf@plt>
  400f65:	bf 38 2d 40 00       	mov    $0x402d38,%edi
  400f6a:	e8 e1 fc ff ff       	callq  400c50 <puts@plt>
  400f6f:	bf 60 2d 40 00       	mov    $0x402d60,%edi
  400f74:	e8 d7 fc ff ff       	callq  400c50 <puts@plt>
  400f79:	bf b4 2e 40 00       	mov    $0x402eb4,%edi
  400f7e:	e8 cd fc ff ff       	callq  400c50 <puts@plt>
  400f83:	bf 00 00 00 00       	mov    $0x0,%edi
  400f88:	e8 63 fe ff ff       	callq  400df0 <exit@plt>

0000000000400f8d <initialize_target>:
  400f8d:	55                   	push   %rbp
  400f8e:	53                   	push   %rbx
  400f8f:	48 81 ec 08 21 00 00 	sub    $0x2108,%rsp
  400f96:	89 f5                	mov    %esi,%ebp
  400f98:	89 3d 5a 45 20 00    	mov    %edi,0x20455a(%rip)        # 6054f8 <check_level>
  400f9e:	8b 3d c4 41 20 00    	mov    0x2041c4(%rip),%edi        # 605168 <target_id>
  400fa4:	e8 55 1c 00 00       	callq  402bfe <gencookie>
  400fa9:	89 05 55 45 20 00    	mov    %eax,0x204555(%rip)        # 605504 <cookie>
  400faf:	89 c7                	mov    %eax,%edi
  400fb1:	e8 48 1c 00 00       	callq  402bfe <gencookie>
  400fb6:	89 05 44 45 20 00    	mov    %eax,0x204544(%rip)        # 605500 <authkey>
  400fbc:	8b 05 a6 41 20 00    	mov    0x2041a6(%rip),%eax        # 605168 <target_id>
  400fc2:	8d 78 01             	lea    0x1(%rax),%edi
  400fc5:	e8 56 fc ff ff       	callq  400c20 <srandom@plt>
  400fca:	e8 81 fd ff ff       	callq  400d50 <random@plt>
  400fcf:	89 c7                	mov    %eax,%edi
  400fd1:	e8 c5 02 00 00       	callq  40129b <scramble>
  400fd6:	89 c3                	mov    %eax,%ebx
  400fd8:	ba 00 00 00 00       	mov    $0x0,%edx
  400fdd:	85 ed                	test   %ebp,%ebp
  400fdf:	74 18                	je     400ff9 <initialize_target+0x6c>
  400fe1:	bf 00 00 00 00       	mov    $0x0,%edi
  400fe6:	e8 55 fd ff ff       	callq  400d40 <time@plt>
  400feb:	89 c7                	mov    %eax,%edi
  400fed:	e8 2e fc ff ff       	callq  400c20 <srandom@plt>
  400ff2:	e8 59 fd ff ff       	callq  400d50 <random@plt>
  400ff7:	89 c2                	mov    %eax,%edx
  400ff9:	01 da                	add    %ebx,%edx
  400ffb:	0f b7 d2             	movzwl %dx,%edx
  400ffe:	8d 04 d5 00 01 00 00 	lea    0x100(,%rdx,8),%eax
  401005:	89 c0                	mov    %eax,%eax
  401007:	48 89 05 92 44 20 00 	mov    %rax,0x204492(%rip)        # 6054a0 <buf_offset>
  40100e:	c6 05 13 51 20 00 72 	movb   $0x72,0x205113(%rip)        # 606128 <target_prefix>
  401015:	83 3d 8c 44 20 00 00 	cmpl   $0x0,0x20448c(%rip)        # 6054a8 <notify>
  40101c:	0f 84 ae 00 00 00    	je     4010d0 <initialize_target+0x143>
  401022:	83 3d df 44 20 00 00 	cmpl   $0x0,0x2044df(%rip)        # 605508 <is_checker>
  401029:	0f 85 a1 00 00 00    	jne    4010d0 <initialize_target+0x143>
  40102f:	be 00 01 00 00       	mov    $0x100,%esi
  401034:	48 89 e7             	mov    %rsp,%rdi
  401037:	e8 94 fd ff ff       	callq  400dd0 <gethostname@plt>
  40103c:	85 c0                	test   %eax,%eax
  40103e:	75 13                	jne    401053 <initialize_target+0xc6>
  401040:	48 8b 3d 39 41 20 00 	mov    0x204139(%rip),%rdi        # 605180 <host_table>
  401047:	bb 88 51 60 00       	mov    $0x605188,%ebx
  40104c:	48 85 ff             	test   %rdi,%rdi
  40104f:	75 16                	jne    401067 <initialize_target+0xda>
  401051:	eb 50                	jmp    4010a3 <initialize_target+0x116>
  401053:	bf 90 2d 40 00       	mov    $0x402d90,%edi
  401058:	e8 f3 fb ff ff       	callq  400c50 <puts@plt>
  40105d:	bf 08 00 00 00       	mov    $0x8,%edi
  401062:	e8 89 fd ff ff       	callq  400df0 <exit@plt>
  401067:	48 89 e6             	mov    %rsp,%rsi
  40106a:	e8 91 fb ff ff       	callq  400c00 <strcasecmp@plt>
  40106f:	85 c0                	test   %eax,%eax
  401071:	74 4c                	je     4010bf <initialize_target+0x132>
  401073:	48 83 c3 08          	add    $0x8,%rbx
  401077:	48 8b 7b f8          	mov    -0x8(%rbx),%rdi
  40107b:	48 85 ff             	test   %rdi,%rdi
  40107e:	75 e7                	jne    401067 <initialize_target+0xda>
  401080:	eb 21                	jmp    4010a3 <initialize_target+0x116>
  401082:	48 8d b4 24 00 01 00 	lea    0x100(%rsp),%rsi
  401089:	00 
  40108a:	bf c8 2d 40 00       	mov    $0x402dc8,%edi
  40108f:	b8 00 00 00 00       	mov    $0x0,%eax
  401094:	e8 e7 fb ff ff       	callq  400c80 <printf@plt>
  401099:	bf 08 00 00 00       	mov    $0x8,%edi
  40109e:	e8 4d fd ff ff       	callq  400df0 <exit@plt>
  4010a3:	48 89 e6             	mov    %rsp,%rsi
  4010a6:	bf f0 2d 40 00       	mov    $0x402df0,%edi
  4010ab:	b8 00 00 00 00       	mov    $0x0,%eax
  4010b0:	e8 cb fb ff ff       	callq  400c80 <printf@plt>
  4010b5:	bf 08 00 00 00       	mov    $0x8,%edi
  4010ba:	e8 31 fd ff ff       	callq  400df0 <exit@plt>
  4010bf:	48 8d bc 24 00 01 00 	lea    0x100(%rsp),%rdi
  4010c6:	00 
  4010c7:	e8 ae 18 00 00       	callq  40297a <init_driver>
  4010cc:	85 c0                	test   %eax,%eax
  4010ce:	78 b2                	js     401082 <initialize_target+0xf5>
  4010d0:	48 81 c4 08 21 00 00 	add    $0x2108,%rsp
  4010d7:	5b                   	pop    %rbx
  4010d8:	5d                   	pop    %rbp
  4010d9:	c3                   	retq   

00000000004010da <main>:
  4010da:	41 56                	push   %r14
  4010dc:	41 55                	push   %r13
  4010de:	41 54                	push   %r12
  4010e0:	55                   	push   %rbp
  4010e1:	53                   	push   %rbx
  4010e2:	41 89 fc             	mov    %edi,%r12d
  4010e5:	48 89 f3             	mov    %rsi,%rbx
  4010e8:	be 85 1d 40 00       	mov    $0x401d85,%esi
  4010ed:	bf 0b 00 00 00       	mov    $0xb,%edi
  4010f2:	e8 e9 fb ff ff       	callq  400ce0 <signal@plt>
  4010f7:	be 37 1d 40 00       	mov    $0x401d37,%esi
  4010fc:	bf 07 00 00 00       	mov    $0x7,%edi
  401101:	e8 da fb ff ff       	callq  400ce0 <signal@plt>
  401106:	be d3 1d 40 00       	mov    $0x401dd3,%esi
  40110b:	bf 04 00 00 00       	mov    $0x4,%edi
  401110:	e8 cb fb ff ff       	callq  400ce0 <signal@plt>
  401115:	bd cd 2e 40 00       	mov    $0x402ecd,%ebp
  40111a:	83 3d e7 43 20 00 00 	cmpl   $0x0,0x2043e7(%rip)        # 605508 <is_checker>
  401121:	74 1e                	je     401141 <main+0x67>
  401123:	be 21 1e 40 00       	mov    $0x401e21,%esi
  401128:	bf 0e 00 00 00       	mov    $0xe,%edi
  40112d:	e8 ae fb ff ff       	callq  400ce0 <signal@plt>
  401132:	bf 05 00 00 00       	mov    $0x5,%edi
  401137:	e8 64 fb ff ff       	callq  400ca0 <alarm@plt>
  40113c:	bd d2 2e 40 00       	mov    $0x402ed2,%ebp
  401141:	48 8b 05 78 43 20 00 	mov    0x204378(%rip),%rax        # 6054c0 <stdin@@GLIBC_2.2.5>
  401148:	48 89 05 a1 43 20 00 	mov    %rax,0x2043a1(%rip)        # 6054f0 <infile>
  40114f:	41 bd 00 00 00 00    	mov    $0x0,%r13d
  401155:	41 be 00 00 00 00    	mov    $0x0,%r14d
  40115b:	e9 b9 00 00 00       	jmpq   401219 <main+0x13f>
  401160:	83 e8 61             	sub    $0x61,%eax
  401163:	3c 10                	cmp    $0x10,%al
  401165:	0f 87 93 00 00 00    	ja     4011fe <main+0x124>
  40116b:	0f b6 c0             	movzbl %al,%eax
  40116e:	ff 24 c5 18 2f 40 00 	jmpq   *0x402f18(,%rax,8)
  401175:	48 8b 3b             	mov    (%rbx),%rdi
  401178:	e8 90 fd ff ff       	callq  400f0d <usage>
  40117d:	be 80 30 40 00       	mov    $0x403080,%esi
  401182:	48 8b 3d 3f 43 20 00 	mov    0x20433f(%rip),%rdi        # 6054c8 <optarg@@GLIBC_2.2.5>
  401189:	e8 12 fc ff ff       	callq  400da0 <fopen@plt>
  40118e:	48 89 05 5b 43 20 00 	mov    %rax,0x20435b(%rip)        # 6054f0 <infile>
  401195:	48 85 c0             	test   %rax,%rax
  401198:	75 7f                	jne    401219 <main+0x13f>
  40119a:	48 8b 15 27 43 20 00 	mov    0x204327(%rip),%rdx        # 6054c8 <optarg@@GLIBC_2.2.5>
  4011a1:	be da 2e 40 00       	mov    $0x402eda,%esi
  4011a6:	48 8b 3d 23 43 20 00 	mov    0x204323(%rip),%rdi        # 6054d0 <stderr@@GLIBC_2.2.5>
  4011ad:	e8 4e fb ff ff       	callq  400d00 <fprintf@plt>
  4011b2:	b8 01 00 00 00       	mov    $0x1,%eax
  4011b7:	e9 d6 00 00 00       	jmpq   401292 <main+0x1b8>
  4011bc:	ba 10 00 00 00       	mov    $0x10,%edx
  4011c1:	be 00 00 00 00       	mov    $0x0,%esi
  4011c6:	48 8b 3d fb 42 20 00 	mov    0x2042fb(%rip),%rdi        # 6054c8 <optarg@@GLIBC_2.2.5>
  4011cd:	e8 ee fb ff ff       	callq  400dc0 <strtoul@plt>
  4011d2:	41 89 c6             	mov    %eax,%r14d
  4011d5:	eb 42                	jmp    401219 <main+0x13f>
  4011d7:	ba 0a 00 00 00       	mov    $0xa,%edx
  4011dc:	be 00 00 00 00       	mov    $0x0,%esi
  4011e1:	48 8b 3d e0 42 20 00 	mov    0x2042e0(%rip),%rdi        # 6054c8 <optarg@@GLIBC_2.2.5>
  4011e8:	e8 33 fb ff ff       	callq  400d20 <strtol@plt>
  4011ed:	41 89 c5             	mov    %eax,%r13d
  4011f0:	eb 27                	jmp    401219 <main+0x13f>
  4011f2:	c7 05 ac 42 20 00 00 	movl   $0x0,0x2042ac(%rip)        # 6054a8 <notify>
  4011f9:	00 00 00 
  4011fc:	eb 1b                	jmp    401219 <main+0x13f>
  4011fe:	40 0f be f6          	movsbl %sil,%esi
  401202:	bf f7 2e 40 00       	mov    $0x402ef7,%edi
  401207:	b8 00 00 00 00       	mov    $0x0,%eax
  40120c:	e8 6f fa ff ff       	callq  400c80 <printf@plt>
  401211:	48 8b 3b             	mov    (%rbx),%rdi
  401214:	e8 f4 fc ff ff       	callq  400f0d <usage>
  401219:	48 89 ea             	mov    %rbp,%rdx
  40121c:	48 89 de             	mov    %rbx,%rsi
  40121f:	44 89 e7             	mov    %r12d,%edi
  401222:	e8 89 fb ff ff       	callq  400db0 <getopt@plt>
  401227:	89 c6                	mov    %eax,%esi
  401229:	3c ff                	cmp    $0xff,%al
  40122b:	0f 85 2f ff ff ff    	jne    401160 <main+0x86>
  401231:	be 01 00 00 00       	mov    $0x1,%esi
  401236:	44 89 ef             	mov    %r13d,%edi
  401239:	e8 4f fd ff ff       	callq  400f8d <initialize_target>
  40123e:	83 3d c3 42 20 00 00 	cmpl   $0x0,0x2042c3(%rip)        # 605508 <is_checker>
  401245:	74 25                	je     40126c <main+0x192>
  401247:	44 3b 35 b2 42 20 00 	cmp    0x2042b2(%rip),%r14d        # 605500 <authkey>
  40124e:	74 1c                	je     40126c <main+0x192>
  401250:	44 89 f6             	mov    %r14d,%esi
  401253:	bf 30 2e 40 00       	mov    $0x402e30,%edi
  401258:	b8 00 00 00 00       	mov    $0x0,%eax
  40125d:	e8 1e fa ff ff       	callq  400c80 <printf@plt>
  401262:	b8 00 00 00 00       	mov    $0x0,%eax
  401267:	e8 31 07 00 00       	callq  40199d <check_fail>
  40126c:	8b 35 92 42 20 00    	mov    0x204292(%rip),%esi        # 605504 <cookie>
  401272:	bf 0a 2f 40 00       	mov    $0x402f0a,%edi
  401277:	b8 00 00 00 00       	mov    $0x0,%eax
  40127c:	e8 ff f9 ff ff       	callq  400c80 <printf@plt>
  401281:	48 8b 3d 18 42 20 00 	mov    0x204218(%rip),%rdi        # 6054a0 <buf_offset>
  401288:	e8 e2 0b 00 00       	callq  401e6f <launch>
  40128d:	b8 00 00 00 00       	mov    $0x0,%eax
  401292:	5b                   	pop    %rbx
  401293:	5d                   	pop    %rbp
  401294:	41 5c                	pop    %r12
  401296:	41 5d                	pop    %r13
  401298:	41 5e                	pop    %r14
  40129a:	c3                   	retq   

000000000040129b <scramble>:
  40129b:	b8 00 00 00 00       	mov    $0x0,%eax
  4012a0:	89 c2                	mov    %eax,%edx
  4012a2:	89 7c 94 d0          	mov    %edi,-0x30(%rsp,%rdx,4)
  4012a6:	83 c0 01             	add    $0x1,%eax
  4012a9:	81 c7 eb 30 00 00    	add    $0x30eb,%edi
  4012af:	83 f8 0a             	cmp    $0xa,%eax
  4012b2:	75 ec                	jne    4012a0 <scramble+0x5>
  4012b4:	8b 44 24 f4          	mov    -0xc(%rsp),%eax
  4012b8:	69 c0 f0 4d 00 00    	imul   $0x4df0,%eax,%eax
  4012be:	89 44 24 f4          	mov    %eax,-0xc(%rsp)
  4012c2:	8b 44 24 d4          	mov    -0x2c(%rsp),%eax
  4012c6:	69 c0 dd 37 00 00    	imul   $0x37dd,%eax,%eax
  4012cc:	89 44 24 d4          	mov    %eax,-0x2c(%rsp)
  4012d0:	8b 44 24 dc          	mov    -0x24(%rsp),%eax
  4012d4:	69 c0 c6 b3 00 00    	imul   $0xb3c6,%eax,%eax
  4012da:	89 44 24 dc          	mov    %eax,-0x24(%rsp)
  4012de:	8b 44 24 e4          	mov    -0x1c(%rsp),%eax
  4012e2:	69 c0 87 4d 00 00    	imul   $0x4d87,%eax,%eax
  4012e8:	89 44 24 e4          	mov    %eax,-0x1c(%rsp)
  4012ec:	8b 44 24 d0          	mov    -0x30(%rsp),%eax
  4012f0:	69 c0 80 95 00 00    	imul   $0x9580,%eax,%eax
  4012f6:	89 44 24 d0          	mov    %eax,-0x30(%rsp)
  4012fa:	8b 44 24 e8          	mov    -0x18(%rsp),%eax
  4012fe:	69 c0 20 3b 00 00    	imul   $0x3b20,%eax,%eax
  401304:	89 44 24 e8          	mov    %eax,-0x18(%rsp)
  401308:	8b 44 24 d8          	mov    -0x28(%rsp),%eax
  40130c:	69 c0 d8 88 00 00    	imul   $0x88d8,%eax,%eax
  401312:	89 44 24 d8          	mov    %eax,-0x28(%rsp)
  401316:	8b 44 24 f0          	mov    -0x10(%rsp),%eax
  40131a:	69 c0 25 13 00 00    	imul   $0x1325,%eax,%eax
  401320:	89 44 24 f0          	mov    %eax,-0x10(%rsp)
  401324:	8b 44 24 f0          	mov    -0x10(%rsp),%eax
  401328:	69 c0 e3 30 00 00    	imul   $0x30e3,%eax,%eax
  40132e:	89 44 24 f0          	mov    %eax,-0x10(%rsp)
  401332:	8b 44 24 e0          	mov    -0x20(%rsp),%eax
  401336:	69 c0 78 2b 00 00    	imul   $0x2b78,%eax,%eax
  40133c:	89 44 24 e0          	mov    %eax,-0x20(%rsp)
  401340:	8b 44 24 dc          	mov    -0x24(%rsp),%eax
  401344:	69 c0 8a bd 00 00    	imul   $0xbd8a,%eax,%eax
  40134a:	89 44 24 dc          	mov    %eax,-0x24(%rsp)
  40134e:	8b 44 24 f0          	mov    -0x10(%rsp),%eax
  401352:	69 c0 4c 3b 00 00    	imul   $0x3b4c,%eax,%eax
  401358:	89 44 24 f0          	mov    %eax,-0x10(%rsp)
  40135c:	8b 44 24 ec          	mov    -0x14(%rsp),%eax
  401360:	69 c0 86 ff 00 00    	imul   $0xff86,%eax,%eax
  401366:	89 44 24 ec          	mov    %eax,-0x14(%rsp)
  40136a:	8b 44 24 ec          	mov    -0x14(%rsp),%eax
  40136e:	69 c0 ff 7a 00 00    	imul   $0x7aff,%eax,%eax
  401374:	89 44 24 ec          	mov    %eax,-0x14(%rsp)
  401378:	8b 44 24 dc          	mov    -0x24(%rsp),%eax
  40137c:	69 c0 2c 3c 00 00    	imul   $0x3c2c,%eax,%eax
  401382:	89 44 24 dc          	mov    %eax,-0x24(%rsp)
  401386:	8b 44 24 e0          	mov    -0x20(%rsp),%eax
  40138a:	69 c0 f6 02 00 00    	imul   $0x2f6,%eax,%eax
  401390:	89 44 24 e0          	mov    %eax,-0x20(%rsp)
  401394:	8b 44 24 dc          	mov    -0x24(%rsp),%eax
  401398:	69 c0 c6 e0 00 00    	imul   $0xe0c6,%eax,%eax
  40139e:	89 44 24 dc          	mov    %eax,-0x24(%rsp)
  4013a2:	8b 44 24 f0          	mov    -0x10(%rsp),%eax
  4013a6:	69 c0 bd 3e 00 00    	imul   $0x3ebd,%eax,%eax
  4013ac:	89 44 24 f0          	mov    %eax,-0x10(%rsp)
  4013b0:	8b 44 24 d8          	mov    -0x28(%rsp),%eax
  4013b4:	69 c0 e2 66 00 00    	imul   $0x66e2,%eax,%eax
  4013ba:	89 44 24 d8          	mov    %eax,-0x28(%rsp)
  4013be:	8b 44 24 d8          	mov    -0x28(%rsp),%eax
  4013c2:	69 c0 6d 22 00 00    	imul   $0x226d,%eax,%eax
  4013c8:	89 44 24 d8          	mov    %eax,-0x28(%rsp)
  4013cc:	8b 44 24 e0          	mov    -0x20(%rsp),%eax
  4013d0:	69 c0 2c 47 00 00    	imul   $0x472c,%eax,%eax
  4013d6:	89 44 24 e0          	mov    %eax,-0x20(%rsp)
  4013da:	8b 44 24 ec          	mov    -0x14(%rsp),%eax
  4013de:	69 c0 6f 69 00 00    	imul   $0x696f,%eax,%eax
  4013e4:	89 44 24 ec          	mov    %eax,-0x14(%rsp)
  4013e8:	8b 44 24 e8          	mov    -0x18(%rsp),%eax
  4013ec:	69 c0 64 71 00 00    	imul   $0x7164,%eax,%eax
  4013f2:	89 44 24 e8          	mov    %eax,-0x18(%rsp)
  4013f6:	8b 44 24 e0          	mov    -0x20(%rsp),%eax
  4013fa:	69 c0 23 33 00 00    	imul   $0x3323,%eax,%eax
  401400:	89 44 24 e0          	mov    %eax,-0x20(%rsp)
  401404:	8b 44 24 dc          	mov    -0x24(%rsp),%eax
  401408:	69 c0 d7 98 00 00    	imul   $0x98d7,%eax,%eax
  40140e:	89 44 24 dc          	mov    %eax,-0x24(%rsp)
  401412:	8b 44 24 e4          	mov    -0x1c(%rsp),%eax
  401416:	69 c0 64 16 00 00    	imul   $0x1664,%eax,%eax
  40141c:	89 44 24 e4          	mov    %eax,-0x1c(%rsp)
  401420:	8b 44 24 e0          	mov    -0x20(%rsp),%eax
  401424:	69 c0 d7 ca 00 00    	imul   $0xcad7,%eax,%eax
  40142a:	89 44 24 e0          	mov    %eax,-0x20(%rsp)
  40142e:	8b 44 24 ec          	mov    -0x14(%rsp),%eax
  401432:	69 c0 4a 81 00 00    	imul   $0x814a,%eax,%eax
  401438:	89 44 24 ec          	mov    %eax,-0x14(%rsp)
  40143c:	8b 44 24 ec          	mov    -0x14(%rsp),%eax
  401440:	69 c0 da 5f 00 00    	imul   $0x5fda,%eax,%eax
  401446:	89 44 24 ec          	mov    %eax,-0x14(%rsp)
  40144a:	8b 44 24 d8          	mov    -0x28(%rsp),%eax
  40144e:	69 c0 68 9c 00 00    	imul   $0x9c68,%eax,%eax
  401454:	89 44 24 d8          	mov    %eax,-0x28(%rsp)
  401458:	8b 44 24 e0          	mov    -0x20(%rsp),%eax
  40145c:	69 c0 92 af 00 00    	imul   $0xaf92,%eax,%eax
  401462:	89 44 24 e0          	mov    %eax,-0x20(%rsp)
  401466:	8b 44 24 e8          	mov    -0x18(%rsp),%eax
  40146a:	69 c0 22 26 00 00    	imul   $0x2622,%eax,%eax
  401470:	89 44 24 e8          	mov    %eax,-0x18(%rsp)
  401474:	8b 44 24 e4          	mov    -0x1c(%rsp),%eax
  401478:	69 c0 31 da 00 00    	imul   $0xda31,%eax,%eax
  40147e:	89 44 24 e4          	mov    %eax,-0x1c(%rsp)
  401482:	8b 44 24 e8          	mov    -0x18(%rsp),%eax
  401486:	69 c0 e4 24 00 00    	imul   $0x24e4,%eax,%eax
  40148c:	89 44 24 e8          	mov    %eax,-0x18(%rsp)
  401490:	8b 44 24 d0          	mov    -0x30(%rsp),%eax
  401494:	69 c0 23 f1 00 00    	imul   $0xf123,%eax,%eax
  40149a:	89 44 24 d0          	mov    %eax,-0x30(%rsp)
  40149e:	8b 44 24 d8          	mov    -0x28(%rsp),%eax
  4014a2:	69 c0 76 3d 00 00    	imul   $0x3d76,%eax,%eax
  4014a8:	89 44 24 d8          	mov    %eax,-0x28(%rsp)
  4014ac:	8b 44 24 d4          	mov    -0x2c(%rsp),%eax
  4014b0:	69 c0 e0 a4 00 00    	imul   $0xa4e0,%eax,%eax
  4014b6:	89 44 24 d4          	mov    %eax,-0x2c(%rsp)
  4014ba:	8b 44 24 d8          	mov    -0x28(%rsp),%eax
  4014be:	69 c0 55 08 00 00    	imul   $0x855,%eax,%eax
  4014c4:	89 44 24 d8          	mov    %eax,-0x28(%rsp)
  4014c8:	8b 44 24 e8          	mov    -0x18(%rsp),%eax
  4014cc:	69 c0 7a 23 00 00    	imul   $0x237a,%eax,%eax
  4014d2:	89 44 24 e8          	mov    %eax,-0x18(%rsp)
  4014d6:	8b 44 24 dc          	mov    -0x24(%rsp),%eax
  4014da:	69 c0 8c b8 00 00    	imul   $0xb88c,%eax,%eax
  4014e0:	89 44 24 dc          	mov    %eax,-0x24(%rsp)
  4014e4:	8b 44 24 f4          	mov    -0xc(%rsp),%eax
  4014e8:	69 c0 13 9a 00 00    	imul   $0x9a13,%eax,%eax
  4014ee:	89 44 24 f4          	mov    %eax,-0xc(%rsp)
  4014f2:	8b 44 24 f0          	mov    -0x10(%rsp),%eax
  4014f6:	69 c0 b2 12 00 00    	imul   $0x12b2,%eax,%eax
  4014fc:	89 44 24 f0          	mov    %eax,-0x10(%rsp)
  401500:	8b 44 24 e8          	mov    -0x18(%rsp),%eax
  401504:	69 c0 a1 20 00 00    	imul   $0x20a1,%eax,%eax
  40150a:	89 44 24 e8          	mov    %eax,-0x18(%rsp)
  40150e:	8b 44 24 ec          	mov    -0x14(%rsp),%eax
  401512:	69 c0 47 2f 00 00    	imul   $0x2f47,%eax,%eax
  401518:	89 44 24 ec          	mov    %eax,-0x14(%rsp)
  40151c:	8b 44 24 e4          	mov    -0x1c(%rsp),%eax
  401520:	69 c0 46 90 00 00    	imul   $0x9046,%eax,%eax
  401526:	89 44 24 e4          	mov    %eax,-0x1c(%rsp)
  40152a:	8b 44 24 f0          	mov    -0x10(%rsp),%eax
  40152e:	69 c0 81 1c 00 00    	imul   $0x1c81,%eax,%eax
  401534:	89 44 24 f0          	mov    %eax,-0x10(%rsp)
  401538:	8b 44 24 ec          	mov    -0x14(%rsp),%eax
  40153c:	69 c0 0d 6b 00 00    	imul   $0x6b0d,%eax,%eax
  401542:	89 44 24 ec          	mov    %eax,-0x14(%rsp)
  401546:	8b 44 24 d4          	mov    -0x2c(%rsp),%eax
  40154a:	69 c0 31 d0 00 00    	imul   $0xd031,%eax,%eax
  401550:	89 44 24 d4          	mov    %eax,-0x2c(%rsp)
  401554:	8b 44 24 d4          	mov    -0x2c(%rsp),%eax
  401558:	69 c0 82 a7 00 00    	imul   $0xa782,%eax,%eax
  40155e:	89 44 24 d4          	mov    %eax,-0x2c(%rsp)
  401562:	8b 44 24 d8          	mov    -0x28(%rsp),%eax
  401566:	69 c0 53 86 00 00    	imul   $0x8653,%eax,%eax
  40156c:	89 44 24 d8          	mov    %eax,-0x28(%rsp)
  401570:	8b 44 24 ec          	mov    -0x14(%rsp),%eax
  401574:	69 c0 67 3c 00 00    	imul   $0x3c67,%eax,%eax
  40157a:	89 44 24 ec          	mov    %eax,-0x14(%rsp)
  40157e:	8b 44 24 ec          	mov    -0x14(%rsp),%eax
  401582:	69 c0 f6 d0 00 00    	imul   $0xd0f6,%eax,%eax
  401588:	89 44 24 ec          	mov    %eax,-0x14(%rsp)
  40158c:	8b 44 24 ec          	mov    -0x14(%rsp),%eax
  401590:	69 c0 af 6a 00 00    	imul   $0x6aaf,%eax,%eax
  401596:	89 44 24 ec          	mov    %eax,-0x14(%rsp)
  40159a:	8b 44 24 ec          	mov    -0x14(%rsp),%eax
  40159e:	69 c0 8c f7 00 00    	imul   $0xf78c,%eax,%eax
  4015a4:	89 44 24 ec          	mov    %eax,-0x14(%rsp)
  4015a8:	8b 44 24 d0          	mov    -0x30(%rsp),%eax
  4015ac:	69 c0 c3 14 00 00    	imul   $0x14c3,%eax,%eax
  4015b2:	89 44 24 d0          	mov    %eax,-0x30(%rsp)
  4015b6:	8b 44 24 e0          	mov    -0x20(%rsp),%eax
  4015ba:	69 c0 7a 4a 00 00    	imul   $0x4a7a,%eax,%eax
  4015c0:	89 44 24 e0          	mov    %eax,-0x20(%rsp)
  4015c4:	8b 44 24 d8          	mov    -0x28(%rsp),%eax
  4015c8:	69 c0 09 7f 00 00    	imul   $0x7f09,%eax,%eax
  4015ce:	89 44 24 d8          	mov    %eax,-0x28(%rsp)
  4015d2:	8b 44 24 e4          	mov    -0x1c(%rsp),%eax
  4015d6:	69 c0 c1 13 00 00    	imul   $0x13c1,%eax,%eax
  4015dc:	89 44 24 e4          	mov    %eax,-0x1c(%rsp)
  4015e0:	8b 44 24 d8          	mov    -0x28(%rsp),%eax
  4015e4:	69 c0 29 f1 00 00    	imul   $0xf129,%eax,%eax
  4015ea:	89 44 24 d8          	mov    %eax,-0x28(%rsp)
  4015ee:	8b 44 24 ec          	mov    -0x14(%rsp),%eax
  4015f2:	69 c0 26 20 00 00    	imul   $0x2026,%eax,%eax
  4015f8:	89 44 24 ec          	mov    %eax,-0x14(%rsp)
  4015fc:	8b 44 24 d8          	mov    -0x28(%rsp),%eax
  401600:	69 c0 b8 0e 00 00    	imul   $0xeb8,%eax,%eax
  401606:	89 44 24 d8          	mov    %eax,-0x28(%rsp)
  40160a:	8b 44 24 d4          	mov    -0x2c(%rsp),%eax
  40160e:	69 c0 47 c1 00 00    	imul   $0xc147,%eax,%eax
  401614:	89 44 24 d4          	mov    %eax,-0x2c(%rsp)
  401618:	8b 44 24 d8          	mov    -0x28(%rsp),%eax
  40161c:	69 c0 4b 7f 00 00    	imul   $0x7f4b,%eax,%eax
  401622:	89 44 24 d8          	mov    %eax,-0x28(%rsp)
  401626:	8b 44 24 f0          	mov    -0x10(%rsp),%eax
  40162a:	69 c0 04 bf 00 00    	imul   $0xbf04,%eax,%eax
  401630:	89 44 24 f0          	mov    %eax,-0x10(%rsp)
  401634:	8b 44 24 f4          	mov    -0xc(%rsp),%eax
  401638:	69 c0 8e 86 00 00    	imul   $0x868e,%eax,%eax
  40163e:	89 44 24 f4          	mov    %eax,-0xc(%rsp)
  401642:	8b 44 24 ec          	mov    -0x14(%rsp),%eax
  401646:	69 c0 74 bf 00 00    	imul   $0xbf74,%eax,%eax
  40164c:	89 44 24 ec          	mov    %eax,-0x14(%rsp)
  401650:	8b 44 24 f0          	mov    -0x10(%rsp),%eax
  401654:	69 c0 21 09 00 00    	imul   $0x921,%eax,%eax
  40165a:	89 44 24 f0          	mov    %eax,-0x10(%rsp)
  40165e:	8b 44 24 f0          	mov    -0x10(%rsp),%eax
  401662:	69 c0 3d a4 00 00    	imul   $0xa43d,%eax,%eax
  401668:	89 44 24 f0          	mov    %eax,-0x10(%rsp)
  40166c:	8b 44 24 ec          	mov    -0x14(%rsp),%eax
  401670:	69 c0 b5 69 00 00    	imul   $0x69b5,%eax,%eax
  401676:	89 44 24 ec          	mov    %eax,-0x14(%rsp)
  40167a:	8b 44 24 d0          	mov    -0x30(%rsp),%eax
  40167e:	69 c0 f9 01 00 00    	imul   $0x1f9,%eax,%eax
  401684:	89 44 24 d0          	mov    %eax,-0x30(%rsp)
  401688:	8b 44 24 f4          	mov    -0xc(%rsp),%eax
  40168c:	69 c0 e1 4b 00 00    	imul   $0x4be1,%eax,%eax
  401692:	89 44 24 f4          	mov    %eax,-0xc(%rsp)
  401696:	8b 44 24 ec          	mov    -0x14(%rsp),%eax
  40169a:	69 c0 4e 2d 00 00    	imul   $0x2d4e,%eax,%eax
  4016a0:	89 44 24 ec          	mov    %eax,-0x14(%rsp)
  4016a4:	8b 44 24 ec          	mov    -0x14(%rsp),%eax
  4016a8:	69 c0 9f a9 00 00    	imul   $0xa99f,%eax,%eax
  4016ae:	89 44 24 ec          	mov    %eax,-0x14(%rsp)
  4016b2:	8b 44 24 e0          	mov    -0x20(%rsp),%eax
  4016b6:	69 c0 96 6a 00 00    	imul   $0x6a96,%eax,%eax
  4016bc:	89 44 24 e0          	mov    %eax,-0x20(%rsp)
  4016c0:	ba 00 00 00 00       	mov    $0x0,%edx
  4016c5:	b8 00 00 00 00       	mov    $0x0,%eax
  4016ca:	89 d1                	mov    %edx,%ecx
  4016cc:	8b 4c 8c d0          	mov    -0x30(%rsp,%rcx,4),%ecx
  4016d0:	01 c8                	add    %ecx,%eax
  4016d2:	83 c2 01             	add    $0x1,%edx
  4016d5:	83 fa 0a             	cmp    $0xa,%edx
  4016d8:	75 f0                	jne    4016ca <scramble+0x42f>
  4016da:	f3 c3                	repz retq 

00000000004016dc <getbuf>:
  4016dc:	48 83 ec 38          	sub    $0x38,%rsp
  4016e0:	48 89 e7             	mov    %rsp,%rdi
  4016e3:	e8 e4 02 00 00       	callq  4019cc <Gets>
  4016e8:	b8 01 00 00 00       	mov    $0x1,%eax
  4016ed:	48 83 c4 38          	add    $0x38,%rsp
  4016f1:	c3                   	retq   

00000000004016f2 <touch1>:
  4016f2:	48 83 ec 08          	sub    $0x8,%rsp
  4016f6:	c7 05 fc 3d 20 00 01 	movl   $0x1,0x203dfc(%rip)        # 6054fc <vlevel>
  4016fd:	00 00 00 
  401700:	bf ed 30 40 00       	mov    $0x4030ed,%edi
  401705:	e8 46 f5 ff ff       	callq  400c50 <puts@plt>
  40170a:	bf 01 00 00 00       	mov    $0x1,%edi
  40170f:	e8 3f 05 00 00       	callq  401c53 <validate>
  401714:	bf 00 00 00 00       	mov    $0x0,%edi
  401719:	e8 d2 f6 ff ff       	callq  400df0 <exit@plt>

000000000040171e <touch2>:
  40171e:	48 83 ec 08          	sub    $0x8,%rsp
  401722:	89 fe                	mov    %edi,%esi
  401724:	c7 05 ce 3d 20 00 02 	movl   $0x2,0x203dce(%rip)        # 6054fc <vlevel>
  40172b:	00 00 00 
  40172e:	3b 3d d0 3d 20 00    	cmp    0x203dd0(%rip),%edi        # 605504 <cookie>
  401734:	75 1b                	jne    401751 <touch2+0x33>
  401736:	bf 10 31 40 00       	mov    $0x403110,%edi
  40173b:	b8 00 00 00 00       	mov    $0x0,%eax
  401740:	e8 3b f5 ff ff       	callq  400c80 <printf@plt>
  401745:	bf 02 00 00 00       	mov    $0x2,%edi
  40174a:	e8 04 05 00 00       	callq  401c53 <validate>
  40174f:	eb 19                	jmp    40176a <touch2+0x4c>
  401751:	bf 38 31 40 00       	mov    $0x403138,%edi
  401756:	b8 00 00 00 00       	mov    $0x0,%eax
  40175b:	e8 20 f5 ff ff       	callq  400c80 <printf@plt>
  401760:	bf 02 00 00 00       	mov    $0x2,%edi
  401765:	e8 a5 05 00 00       	callq  401d0f <fail>
  40176a:	bf 00 00 00 00       	mov    $0x0,%edi
  40176f:	e8 7c f6 ff ff       	callq  400df0 <exit@plt>

0000000000401774 <hexmatch>:
  401774:	41 54                	push   %r12
  401776:	55                   	push   %rbp
  401777:	53                   	push   %rbx
  401778:	48 83 ec 70          	sub    $0x70,%rsp
  40177c:	41 89 fc             	mov    %edi,%r12d
  40177f:	48 89 f5             	mov    %rsi,%rbp
  401782:	e8 c9 f5 ff ff       	callq  400d50 <random@plt>
  401787:	48 89 c1             	mov    %rax,%rcx
  40178a:	48 ba 0b d7 a3 70 3d 	movabs $0xa3d70a3d70a3d70b,%rdx
  401791:	0a d7 a3 
  401794:	48 f7 ea             	imul   %rdx
  401797:	48 8d 04 0a          	lea    (%rdx,%rcx,1),%rax
  40179b:	48 c1 f8 06          	sar    $0x6,%rax
  40179f:	48 89 ce             	mov    %rcx,%rsi
  4017a2:	48 c1 fe 3f          	sar    $0x3f,%rsi
  4017a6:	48 29 f0             	sub    %rsi,%rax
  4017a9:	48 8d 04 80          	lea    (%rax,%rax,4),%rax
  4017ad:	48 8d 04 80          	lea    (%rax,%rax,4),%rax
  4017b1:	48 c1 e0 02          	shl    $0x2,%rax
  4017b5:	48 29 c1             	sub    %rax,%rcx
  4017b8:	48 8d 1c 0c          	lea    (%rsp,%rcx,1),%rbx
  4017bc:	44 89 e2             	mov    %r12d,%edx
  4017bf:	be 0a 31 40 00       	mov    $0x40310a,%esi
  4017c4:	48 89 df             	mov    %rbx,%rdi
  4017c7:	b8 00 00 00 00       	mov    $0x0,%eax
  4017cc:	e8 0f f6 ff ff       	callq  400de0 <sprintf@plt>
  4017d1:	ba 09 00 00 00       	mov    $0x9,%edx
  4017d6:	48 89 de             	mov    %rbx,%rsi
  4017d9:	48 89 ef             	mov    %rbp,%rdi
  4017dc:	e8 4f f4 ff ff       	callq  400c30 <strncmp@plt>
  4017e1:	85 c0                	test   %eax,%eax
  4017e3:	0f 94 c0             	sete   %al
  4017e6:	0f b6 c0             	movzbl %al,%eax
  4017e9:	48 83 c4 70          	add    $0x70,%rsp
  4017ed:	5b                   	pop    %rbx
  4017ee:	5d                   	pop    %rbp
  4017ef:	41 5c                	pop    %r12
  4017f1:	c3                   	retq   

00000000004017f2 <touch3>:
  4017f2:	53                   	push   %rbx
  4017f3:	48 89 fb             	mov    %rdi,%rbx
  4017f6:	c7 05 fc 3c 20 00 03 	movl   $0x3,0x203cfc(%rip)        # 6054fc <vlevel>
  4017fd:	00 00 00 
  401800:	48 89 fe             	mov    %rdi,%rsi
  401803:	8b 3d fb 3c 20 00    	mov    0x203cfb(%rip),%edi        # 605504 <cookie>
  401809:	e8 66 ff ff ff       	callq  401774 <hexmatch>
  40180e:	85 c0                	test   %eax,%eax
  401810:	74 1e                	je     401830 <touch3+0x3e>
  401812:	48 89 de             	mov    %rbx,%rsi
  401815:	bf 60 31 40 00       	mov    $0x403160,%edi
  40181a:	b8 00 00 00 00       	mov    $0x0,%eax
  40181f:	e8 5c f4 ff ff       	callq  400c80 <printf@plt>
  401824:	bf 03 00 00 00       	mov    $0x3,%edi
  401829:	e8 25 04 00 00       	callq  401c53 <validate>
  40182e:	eb 1c                	jmp    40184c <touch3+0x5a>
  401830:	48 89 de             	mov    %rbx,%rsi
  401833:	bf 88 31 40 00       	mov    $0x403188,%edi
  401838:	b8 00 00 00 00       	mov    $0x0,%eax
  40183d:	e8 3e f4 ff ff       	callq  400c80 <printf@plt>
  401842:	bf 03 00 00 00       	mov    $0x3,%edi
  401847:	e8 c3 04 00 00       	callq  401d0f <fail>
  40184c:	bf 00 00 00 00       	mov    $0x0,%edi
  401851:	e8 9a f5 ff ff       	callq  400df0 <exit@plt>

0000000000401856 <test>:
  401856:	48 83 ec 08          	sub    $0x8,%rsp
  40185a:	b8 00 00 00 00       	mov    $0x0,%eax
  40185f:	e8 78 fe ff ff       	callq  4016dc <getbuf>
  401864:	89 c6                	mov    %eax,%esi
  401866:	bf b0 31 40 00       	mov    $0x4031b0,%edi
  40186b:	b8 00 00 00 00       	mov    $0x0,%eax
  401870:	e8 0b f4 ff ff       	callq  400c80 <printf@plt>
  401875:	48 83 c4 08          	add    $0x8,%rsp
  401879:	c3                   	retq   

000000000040187a <start_farm>:
  40187a:	b8 01 00 00 00       	mov    $0x1,%eax
  40187f:	c3                   	retq   

0000000000401880 <addval_456>:
  401880:	8d 87 48 90 90 c3    	lea    -0x3c6f6fb8(%rdi),%eax
  401886:	c3                   	retq   

0000000000401887 <addval_408>:
  401887:	8d 87 53 58 90 c3    	lea    -0x3c6fa7ad(%rdi),%eax
  40188d:	c3                   	retq   

000000000040188e <addval_198>:
  40188e:	8d 87 48 89 c7 c3    	lea    -0x3c3876b8(%rdi),%eax
  401894:	c3                   	retq   

0000000000401895 <setval_228>:
  401895:	c7 07 48 89 c7 90    	movl   $0x90c78948,(%rdi)
  40189b:	c3                   	retq   

000000000040189c <addval_109>:
  40189c:	8d 87 92 58 90 90    	lea    -0x6f6fa76e(%rdi),%eax
  4018a2:	c3                   	retq   

00000000004018a3 <addval_206>:
  4018a3:	8d 87 d8 c3 a8 49    	lea    0x49a8c3d8(%rdi),%eax
  4018a9:	c3                   	retq   

00000000004018aa <setval_353>:
  4018aa:	c7 07 48 89 c7 c7    	movl   $0xc7c78948,(%rdi)
  4018b0:	c3                   	retq   

00000000004018b1 <setval_452>:
  4018b1:	c7 07 48 89 c7 92    	movl   $0x92c78948,(%rdi)
  4018b7:	c3                   	retq   

00000000004018b8 <mid_farm>:
  4018b8:	b8 01 00 00 00       	mov    $0x1,%eax
  4018bd:	c3                   	retq   

00000000004018be <add_xy>:
  4018be:	48 8d 04 37          	lea    (%rdi,%rsi,1),%rax
  4018c2:	c3                   	retq   

00000000004018c3 <getval_231>:
  4018c3:	b8 48 89 e0 c7       	mov    $0xc7e08948,%eax
  4018c8:	c3                   	retq   

00000000004018c9 <getval_144>:
  4018c9:	b8 56 48 89 e0       	mov    $0xe0894856,%eax
  4018ce:	c3                   	retq   

00000000004018cf <addval_453>:
  4018cf:	8d 87 48 89 e0 91    	lea    -0x6e1f76b8(%rdi),%eax
  4018d5:	c3                   	retq   

00000000004018d6 <addval_354>:
  4018d6:	8d 87 48 89 e0 91    	lea    -0x6e1f76b8(%rdi),%eax
  4018dc:	c3                   	retq   

00000000004018dd <getval_331>:
  4018dd:	b8 8b d6 c3 2a       	mov    $0x2ac3d68b,%eax
  4018e2:	c3                   	retq   

00000000004018e3 <setval_359>:
  4018e3:	c7 07 56 68 89 e0    	movl   $0xe0896856,(%rdi)
  4018e9:	c3                   	retq   

00000000004018ea <getval_278>:
  4018ea:	b8 8d d6 84 c0       	mov    $0xc084d68d,%eax
  4018ef:	c3                   	retq   

00000000004018f0 <setval_129>:
  4018f0:	c7 07 99 ca 84 c9    	movl   $0xc984ca99,(%rdi)
  4018f6:	c3                   	retq   

00000000004018f7 <addval_118>:
  4018f7:	8d 87 48 89 e0 c1    	lea    -0x3e1f76b8(%rdi),%eax
  4018fd:	c3                   	retq   

00000000004018fe <getval_441>:
  4018fe:	b8 89 c1 18 c0       	mov    $0xc018c189,%eax
  401903:	c3                   	retq   

0000000000401904 <addval_284>:
  401904:	8d 87 89 c1 90 c3    	lea    -0x3c6f3e77(%rdi),%eax
  40190a:	c3                   	retq   

000000000040190b <setval_322>:
  40190b:	c7 07 89 ca 91 c3    	movl   $0xc391ca89,(%rdi)
  401911:	c3                   	retq   

0000000000401912 <setval_381>:
  401912:	c7 07 48 89 e0 92    	movl   $0x92e08948,(%rdi)
  401918:	c3                   	retq   

0000000000401919 <getval_419>:
  401919:	b8 89 ca 08 d2       	mov    $0xd208ca89,%eax
  40191e:	c3                   	retq   

000000000040191f <addval_277>:
  40191f:	8d 87 89 d6 08 db    	lea    -0x24f72977(%rdi),%eax
  401925:	c3                   	retq   

0000000000401926 <getval_470>:
  401926:	b8 89 ca 90 c1       	mov    $0xc190ca89,%eax
  40192b:	c3                   	retq   

000000000040192c <getval_434>:
  40192c:	b8 89 c1 60 c0       	mov    $0xc060c189,%eax
  401931:	c3                   	retq   

0000000000401932 <setval_252>:
  401932:	c7 07 88 ca 84 c9    	movl   $0xc984ca88,(%rdi)
  401938:	c3                   	retq   

0000000000401939 <setval_135>:
  401939:	c7 07 89 c1 94 c0    	movl   $0xc094c189,(%rdi)
  40193f:	c3                   	retq   

0000000000401940 <setval_183>:
  401940:	c7 07 89 c1 18 db    	movl   $0xdb18c189,(%rdi)
  401946:	c3                   	retq   

0000000000401947 <getval_179>:
  401947:	b8 09 d6 38 c0       	mov    $0xc038d609,%eax
  40194c:	c3                   	retq   

000000000040194d <addval_321>:
  40194d:	8d 87 89 c1 c4 c9    	lea    -0x363b3e77(%rdi),%eax
  401953:	c3                   	retq   

0000000000401954 <getval_390>:
  401954:	b8 99 d6 38 c9       	mov    $0xc938d699,%eax
  401959:	c3                   	retq   

000000000040195a <addval_391>:
  40195a:	8d 87 c2 48 89 e0    	lea    -0x1f76b73e(%rdi),%eax
  401960:	c3                   	retq   

0000000000401961 <setval_332>:
  401961:	c7 07 89 d6 90 c3    	movl   $0xc390d689,(%rdi)
  401967:	c3                   	retq   

0000000000401968 <addval_137>:
  401968:	8d 87 df 8d ca 90    	lea    -0x6f357221(%rdi),%eax
  40196e:	c3                   	retq   

000000000040196f <addval_314>:
  40196f:	8d 87 89 c1 28 d2    	lea    -0x2dd73e77(%rdi),%eax
  401975:	c3                   	retq   

0000000000401976 <setval_142>:
  401976:	c7 07 89 ca 90 c3    	movl   $0xc390ca89,(%rdi)
  40197c:	c3                   	retq   

000000000040197d <getval_298>:
  40197d:	b8 89 c1 08 d2       	mov    $0xd208c189,%eax
  401982:	c3                   	retq   

0000000000401983 <setval_446>:
  401983:	c7 07 8d d6 38 d2    	movl   $0xd238d68d,(%rdi)
  401989:	c3                   	retq   

000000000040198a <getval_445>:
  40198a:	b8 89 ca 94 90       	mov    $0x9094ca89,%eax
  40198f:	c3                   	retq   

0000000000401990 <addval_273>:
  401990:	8d 87 89 d6 18 c0    	lea    -0x3fe72977(%rdi),%eax
  401996:	c3                   	retq   

0000000000401997 <end_farm>:
  401997:	b8 01 00 00 00       	mov    $0x1,%eax
  40199c:	c3                   	retq   

000000000040199d <check_fail>:
  40199d:	48 83 ec 08          	sub    $0x8,%rsp
  4019a1:	0f be 35 80 47 20 00 	movsbl 0x204780(%rip),%esi        # 606128 <target_prefix>
  4019a8:	b9 20 55 60 00       	mov    $0x605520,%ecx
  4019ad:	8b 15 45 3b 20 00    	mov    0x203b45(%rip),%edx        # 6054f8 <check_level>
  4019b3:	bf d3 31 40 00       	mov    $0x4031d3,%edi
  4019b8:	b8 00 00 00 00       	mov    $0x0,%eax
  4019bd:	e8 be f2 ff ff       	callq  400c80 <printf@plt>
  4019c2:	bf 01 00 00 00       	mov    $0x1,%edi
  4019c7:	e8 24 f4 ff ff       	callq  400df0 <exit@plt>

00000000004019cc <Gets>:
  4019cc:	55                   	push   %rbp
  4019cd:	53                   	push   %rbx
  4019ce:	48 83 ec 08          	sub    $0x8,%rsp
  4019d2:	48 89 fd             	mov    %rdi,%rbp
  4019d5:	c7 05 45 47 20 00 00 	movl   $0x0,0x204745(%rip)        # 606124 <gets_cnt>
  4019dc:	00 00 00 
  4019df:	48 89 fb             	mov    %rdi,%rbx
  4019e2:	eb 5f                	jmp    401a43 <Gets+0x77>
  4019e4:	48 83 c3 01          	add    $0x1,%rbx
  4019e8:	88 43 ff             	mov    %al,-0x1(%rbx)
  4019eb:	8b 0d 33 47 20 00    	mov    0x204733(%rip),%ecx        # 606124 <gets_cnt>
  4019f1:	81 f9 ff 03 00 00    	cmp    $0x3ff,%ecx
  4019f7:	7f 4a                	jg     401a43 <Gets+0x77>
  4019f9:	0f b6 d0             	movzbl %al,%edx
  4019fc:	8d 34 49             	lea    (%rcx,%rcx,2),%esi
  4019ff:	48 63 c6             	movslq %esi,%rax
  401a02:	89 d7                	mov    %edx,%edi
  401a04:	c1 ef 04             	shr    $0x4,%edi
  401a07:	48 63 ff             	movslq %edi,%rdi
  401a0a:	0f b6 bf d0 34 40 00 	movzbl 0x4034d0(%rdi),%edi
  401a11:	40 88 b8 20 55 60 00 	mov    %dil,0x605520(%rax)
  401a18:	8d 46 01             	lea    0x1(%rsi),%eax
  401a1b:	48 98                	cltq   
  401a1d:	83 e2 0f             	and    $0xf,%edx
  401a20:	0f b6 92 d0 34 40 00 	movzbl 0x4034d0(%rdx),%edx
  401a27:	88 90 20 55 60 00    	mov    %dl,0x605520(%rax)
  401a2d:	83 c6 02             	add    $0x2,%esi
  401a30:	48 63 f6             	movslq %esi,%rsi
  401a33:	c6 86 20 55 60 00 20 	movb   $0x20,0x605520(%rsi)
  401a3a:	83 c1 01             	add    $0x1,%ecx
  401a3d:	89 0d e1 46 20 00    	mov    %ecx,0x2046e1(%rip)        # 606124 <gets_cnt>
  401a43:	48 8b 3d a6 3a 20 00 	mov    0x203aa6(%rip),%rdi        # 6054f0 <infile>
  401a4a:	e8 11 f3 ff ff       	callq  400d60 <_IO_getc@plt>
  401a4f:	83 f8 ff             	cmp    $0xffffffff,%eax
  401a52:	74 05                	je     401a59 <Gets+0x8d>
  401a54:	83 f8 0a             	cmp    $0xa,%eax
  401a57:	75 8b                	jne    4019e4 <Gets+0x18>
  401a59:	c6 03 00             	movb   $0x0,(%rbx)
  401a5c:	8b 05 c2 46 20 00    	mov    0x2046c2(%rip),%eax        # 606124 <gets_cnt>
  401a62:	8d 04 40             	lea    (%rax,%rax,2),%eax
  401a65:	48 98                	cltq   
  401a67:	c6 80 20 55 60 00 00 	movb   $0x0,0x605520(%rax)
  401a6e:	48 89 e8             	mov    %rbp,%rax
  401a71:	48 83 c4 08          	add    $0x8,%rsp
  401a75:	5b                   	pop    %rbx
  401a76:	5d                   	pop    %rbp
  401a77:	c3                   	retq   

0000000000401a78 <notify_server>:
  401a78:	83 3d 89 3a 20 00 00 	cmpl   $0x0,0x203a89(%rip)        # 605508 <is_checker>
  401a7f:	0f 85 cc 01 00 00    	jne    401c51 <notify_server+0x1d9>
  401a85:	48 81 ec 18 40 00 00 	sub    $0x4018,%rsp
  401a8c:	8b 05 92 46 20 00    	mov    0x204692(%rip),%eax        # 606124 <gets_cnt>
  401a92:	83 c0 64             	add    $0x64,%eax
  401a95:	3d 00 20 00 00       	cmp    $0x2000,%eax
  401a9a:	7e 19                	jle    401ab5 <notify_server+0x3d>
  401a9c:	bf 08 33 40 00       	mov    $0x403308,%edi
  401aa1:	b8 00 00 00 00       	mov    $0x0,%eax
  401aa6:	e8 d5 f1 ff ff       	callq  400c80 <printf@plt>
  401aab:	bf 01 00 00 00       	mov    $0x1,%edi
  401ab0:	e8 3b f3 ff ff       	callq  400df0 <exit@plt>
  401ab5:	44 0f be 0d 6b 46 20 	movsbl 0x20466b(%rip),%r9d        # 606128 <target_prefix>
  401abc:	00 
  401abd:	83 3d e4 39 20 00 00 	cmpl   $0x0,0x2039e4(%rip)        # 6054a8 <notify>
  401ac4:	b8 ff ff ff ff       	mov    $0xffffffff,%eax
  401ac9:	0f 45 05 30 3a 20 00 	cmovne 0x203a30(%rip),%eax        # 605500 <authkey>
  401ad0:	41 89 c0             	mov    %eax,%r8d
  401ad3:	85 ff                	test   %edi,%edi
  401ad5:	0f 85 f0 00 00 00    	jne    401bcb <notify_server+0x153>
  401adb:	e9 a9 00 00 00       	jmpq   401b89 <notify_server+0x111>
  401ae0:	48 8d 74 24 10       	lea    0x10(%rsp),%rsi
  401ae5:	bf f3 31 40 00       	mov    $0x4031f3,%edi
  401aea:	b8 00 00 00 00       	mov    $0x0,%eax
  401aef:	e8 8c f1 ff ff       	callq  400c80 <printf@plt>
  401af4:	bf 01 00 00 00       	mov    $0x1,%edi
  401af9:	e8 f2 f2 ff ff       	callq  400df0 <exit@plt>
  401afe:	bf 38 33 40 00       	mov    $0x403338,%edi
  401b03:	e8 48 f1 ff ff       	callq  400c50 <puts@plt>
  401b08:	bf ff 31 40 00       	mov    $0x4031ff,%edi
  401b0d:	e8 3e f1 ff ff       	callq  400c50 <puts@plt>
  401b12:	e9 33 01 00 00       	jmpq   401c4a <notify_server+0x1d2>
  401b17:	be e9 31 40 00       	mov    $0x4031e9,%esi
  401b1c:	bf 70 33 40 00       	mov    $0x403370,%edi
  401b21:	b8 00 00 00 00       	mov    $0x0,%eax
  401b26:	e8 55 f1 ff ff       	callq  400c80 <printf@plt>
  401b2b:	48 8b 35 2e 36 20 00 	mov    0x20362e(%rip),%rsi        # 605160 <user_id>
  401b32:	bf 09 32 40 00       	mov    $0x403209,%edi
  401b37:	b8 00 00 00 00       	mov    $0x0,%eax
  401b3c:	e8 3f f1 ff ff       	callq  400c80 <printf@plt>
  401b41:	48 8b 35 30 36 20 00 	mov    0x203630(%rip),%rsi        # 605178 <course>
  401b48:	bf 16 32 40 00       	mov    $0x403216,%edi
  401b4d:	b8 00 00 00 00       	mov    $0x0,%eax
  401b52:	e8 29 f1 ff ff       	callq  400c80 <printf@plt>
  401b57:	48 8b 35 12 36 20 00 	mov    0x203612(%rip),%rsi        # 605170 <lab>
  401b5e:	bf 22 32 40 00       	mov    $0x403222,%edi
  401b63:	b8 00 00 00 00       	mov    $0x0,%eax
  401b68:	e8 13 f1 ff ff       	callq  400c80 <printf@plt>
  401b6d:	48 8d b4 24 10 20 00 	lea    0x2010(%rsp),%rsi
  401b74:	00 
  401b75:	bf 2b 32 40 00       	mov    $0x40322b,%edi
  401b7a:	b8 00 00 00 00       	mov    $0x0,%eax
  401b7f:	e8 fc f0 ff ff       	callq  400c80 <printf@plt>
  401b84:	e9 c1 00 00 00       	jmpq   401c4a <notify_server+0x1d2>
  401b89:	48 c7 44 24 08 20 55 	movq   $0x605520,0x8(%rsp)
  401b90:	60 00 
  401b92:	89 34 24             	mov    %esi,(%rsp)
  401b95:	b9 ee 31 40 00       	mov    $0x4031ee,%ecx
  401b9a:	8b 15 c8 35 20 00    	mov    0x2035c8(%rip),%edx        # 605168 <target_id>
  401ba0:	be 37 32 40 00       	mov    $0x403237,%esi
  401ba5:	48 8d bc 24 10 20 00 	lea    0x2010(%rsp),%rdi
  401bac:	00 
  401bad:	b8 00 00 00 00       	mov    $0x0,%eax
  401bb2:	e8 29 f2 ff ff       	callq  400de0 <sprintf@plt>
  401bb7:	be ee 31 40 00       	mov    $0x4031ee,%esi
  401bbc:	83 3d e5 38 20 00 00 	cmpl   $0x0,0x2038e5(%rip)        # 6054a8 <notify>
  401bc3:	0f 84 53 ff ff ff    	je     401b1c <notify_server+0xa4>
  401bc9:	eb 75                	jmp    401c40 <notify_server+0x1c8>
  401bcb:	48 c7 44 24 08 20 55 	movq   $0x605520,0x8(%rsp)
  401bd2:	60 00 
  401bd4:	89 34 24             	mov    %esi,(%rsp)
  401bd7:	b9 e9 31 40 00       	mov    $0x4031e9,%ecx
  401bdc:	8b 15 86 35 20 00    	mov    0x203586(%rip),%edx        # 605168 <target_id>
  401be2:	be 37 32 40 00       	mov    $0x403237,%esi
  401be7:	48 8d bc 24 10 20 00 	lea    0x2010(%rsp),%rdi
  401bee:	00 
  401bef:	b8 00 00 00 00       	mov    $0x0,%eax
  401bf4:	e8 e7 f1 ff ff       	callq  400de0 <sprintf@plt>
  401bf9:	83 3d a8 38 20 00 00 	cmpl   $0x0,0x2038a8(%rip)        # 6054a8 <notify>
  401c00:	0f 84 11 ff ff ff    	je     401b17 <notify_server+0x9f>
  401c06:	4c 8d 4c 24 10       	lea    0x10(%rsp),%r9
  401c0b:	41 b8 00 00 00 00    	mov    $0x0,%r8d
  401c11:	48 8d 8c 24 10 20 00 	lea    0x2010(%rsp),%rcx
  401c18:	00 
  401c19:	48 8b 15 50 35 20 00 	mov    0x203550(%rip),%rdx        # 605170 <lab>
  401c20:	48 8b 35 51 35 20 00 	mov    0x203551(%rip),%rsi        # 605178 <course>
  401c27:	48 8b 3d 32 35 20 00 	mov    0x203532(%rip),%rdi        # 605160 <user_id>
  401c2e:	e8 10 0f 00 00       	callq  402b43 <driver_post>
  401c33:	85 c0                	test   %eax,%eax
  401c35:	0f 89 c3 fe ff ff    	jns    401afe <notify_server+0x86>
  401c3b:	e9 a0 fe ff ff       	jmpq   401ae0 <notify_server+0x68>
  401c40:	bf 53 32 40 00       	mov    $0x403253,%edi
  401c45:	e8 06 f0 ff ff       	callq  400c50 <puts@plt>
  401c4a:	48 81 c4 18 40 00 00 	add    $0x4018,%rsp
  401c51:	f3 c3                	repz retq 

0000000000401c53 <validate>:
  401c53:	55                   	push   %rbp
  401c54:	53                   	push   %rbx
  401c55:	48 83 ec 08          	sub    $0x8,%rsp
  401c59:	89 fb                	mov    %edi,%ebx
  401c5b:	83 3d a6 38 20 00 00 	cmpl   $0x0,0x2038a6(%rip)        # 605508 <is_checker>
  401c62:	74 5e                	je     401cc2 <validate+0x6f>
  401c64:	8b 15 92 38 20 00    	mov    0x203892(%rip),%edx        # 6054fc <vlevel>
  401c6a:	39 fa                	cmp    %edi,%edx
  401c6c:	74 14                	je     401c82 <validate+0x2f>
  401c6e:	bf 5a 32 40 00       	mov    $0x40325a,%edi
  401c73:	e8 d8 ef ff ff       	callq  400c50 <puts@plt>
  401c78:	b8 00 00 00 00       	mov    $0x0,%eax
  401c7d:	e8 1b fd ff ff       	callq  40199d <check_fail>
  401c82:	8b 35 70 38 20 00    	mov    0x203870(%rip),%esi        # 6054f8 <check_level>
  401c88:	39 f2                	cmp    %esi,%edx
  401c8a:	74 19                	je     401ca5 <validate+0x52>
  401c8c:	bf 98 33 40 00       	mov    $0x403398,%edi
  401c91:	b8 00 00 00 00       	mov    $0x0,%eax
  401c96:	e8 e5 ef ff ff       	callq  400c80 <printf@plt>
  401c9b:	b8 00 00 00 00       	mov    $0x0,%eax
  401ca0:	e8 f8 fc ff ff       	callq  40199d <check_fail>
  401ca5:	0f be 35 7c 44 20 00 	movsbl 0x20447c(%rip),%esi        # 606128 <target_prefix>
  401cac:	b9 20 55 60 00       	mov    $0x605520,%ecx
  401cb1:	bf 78 32 40 00       	mov    $0x403278,%edi
  401cb6:	b8 00 00 00 00       	mov    $0x0,%eax
  401cbb:	e8 c0 ef ff ff       	callq  400c80 <printf@plt>
  401cc0:	eb 46                	jmp    401d08 <validate+0xb5>
  401cc2:	8b 2d 34 38 20 00    	mov    0x203834(%rip),%ebp        # 6054fc <vlevel>
  401cc8:	39 fd                	cmp    %edi,%ebp
  401cca:	74 18                	je     401ce4 <validate+0x91>
  401ccc:	bf 5a 32 40 00       	mov    $0x40325a,%edi
  401cd1:	e8 7a ef ff ff       	callq  400c50 <puts@plt>
  401cd6:	89 de                	mov    %ebx,%esi
  401cd8:	bf 00 00 00 00       	mov    $0x0,%edi
  401cdd:	e8 96 fd ff ff       	callq  401a78 <notify_server>
  401ce2:	eb 24                	jmp    401d08 <validate+0xb5>
  401ce4:	0f be 15 3d 44 20 00 	movsbl 0x20443d(%rip),%edx        # 606128 <target_prefix>
  401ceb:	89 ee                	mov    %ebp,%esi
  401ced:	bf c0 33 40 00       	mov    $0x4033c0,%edi
  401cf2:	b8 00 00 00 00       	mov    $0x0,%eax
  401cf7:	e8 84 ef ff ff       	callq  400c80 <printf@plt>
  401cfc:	89 ee                	mov    %ebp,%esi
  401cfe:	bf 01 00 00 00       	mov    $0x1,%edi
  401d03:	e8 70 fd ff ff       	callq  401a78 <notify_server>
  401d08:	48 83 c4 08          	add    $0x8,%rsp
  401d0c:	5b                   	pop    %rbx
  401d0d:	5d                   	pop    %rbp
  401d0e:	c3                   	retq   

0000000000401d0f <fail>:
  401d0f:	48 83 ec 08          	sub    $0x8,%rsp
  401d13:	83 3d ee 37 20 00 00 	cmpl   $0x0,0x2037ee(%rip)        # 605508 <is_checker>
  401d1a:	74 0a                	je     401d26 <fail+0x17>
  401d1c:	b8 00 00 00 00       	mov    $0x0,%eax
  401d21:	e8 77 fc ff ff       	callq  40199d <check_fail>
  401d26:	89 fe                	mov    %edi,%esi
  401d28:	bf 00 00 00 00       	mov    $0x0,%edi
  401d2d:	e8 46 fd ff ff       	callq  401a78 <notify_server>
  401d32:	48 83 c4 08          	add    $0x8,%rsp
  401d36:	c3                   	retq   

0000000000401d37 <bushandler>:
  401d37:	48 83 ec 08          	sub    $0x8,%rsp
  401d3b:	83 3d c6 37 20 00 00 	cmpl   $0x0,0x2037c6(%rip)        # 605508 <is_checker>
  401d42:	74 14                	je     401d58 <bushandler+0x21>
  401d44:	bf 8d 32 40 00       	mov    $0x40328d,%edi
  401d49:	e8 02 ef ff ff       	callq  400c50 <puts@plt>
  401d4e:	b8 00 00 00 00       	mov    $0x0,%eax
  401d53:	e8 45 fc ff ff       	callq  40199d <check_fail>
  401d58:	bf f8 33 40 00       	mov    $0x4033f8,%edi
  401d5d:	e8 ee ee ff ff       	callq  400c50 <puts@plt>
  401d62:	bf 97 32 40 00       	mov    $0x403297,%edi
  401d67:	e8 e4 ee ff ff       	callq  400c50 <puts@plt>
  401d6c:	be 00 00 00 00       	mov    $0x0,%esi
  401d71:	bf 00 00 00 00       	mov    $0x0,%edi
  401d76:	e8 fd fc ff ff       	callq  401a78 <notify_server>
  401d7b:	bf 01 00 00 00       	mov    $0x1,%edi
  401d80:	e8 6b f0 ff ff       	callq  400df0 <exit@plt>

0000000000401d85 <seghandler>:
  401d85:	48 83 ec 08          	sub    $0x8,%rsp
  401d89:	83 3d 78 37 20 00 00 	cmpl   $0x0,0x203778(%rip)        # 605508 <is_checker>
  401d90:	74 14                	je     401da6 <seghandler+0x21>
  401d92:	bf ad 32 40 00       	mov    $0x4032ad,%edi
  401d97:	e8 b4 ee ff ff       	callq  400c50 <puts@plt>
  401d9c:	b8 00 00 00 00       	mov    $0x0,%eax
  401da1:	e8 f7 fb ff ff       	callq  40199d <check_fail>
  401da6:	bf 18 34 40 00       	mov    $0x403418,%edi
  401dab:	e8 a0 ee ff ff       	callq  400c50 <puts@plt>
  401db0:	bf 97 32 40 00       	mov    $0x403297,%edi
  401db5:	e8 96 ee ff ff       	callq  400c50 <puts@plt>
  401dba:	be 00 00 00 00       	mov    $0x0,%esi
  401dbf:	bf 00 00 00 00       	mov    $0x0,%edi
  401dc4:	e8 af fc ff ff       	callq  401a78 <notify_server>
  401dc9:	bf 01 00 00 00       	mov    $0x1,%edi
  401dce:	e8 1d f0 ff ff       	callq  400df0 <exit@plt>

0000000000401dd3 <illegalhandler>:
  401dd3:	48 83 ec 08          	sub    $0x8,%rsp
  401dd7:	83 3d 2a 37 20 00 00 	cmpl   $0x0,0x20372a(%rip)        # 605508 <is_checker>
  401dde:	74 14                	je     401df4 <illegalhandler+0x21>
  401de0:	bf c0 32 40 00       	mov    $0x4032c0,%edi
  401de5:	e8 66 ee ff ff       	callq  400c50 <puts@plt>
  401dea:	b8 00 00 00 00       	mov    $0x0,%eax
  401def:	e8 a9 fb ff ff       	callq  40199d <check_fail>
  401df4:	bf 40 34 40 00       	mov    $0x403440,%edi
  401df9:	e8 52 ee ff ff       	callq  400c50 <puts@plt>
  401dfe:	bf 97 32 40 00       	mov    $0x403297,%edi
  401e03:	e8 48 ee ff ff       	callq  400c50 <puts@plt>
  401e08:	be 00 00 00 00       	mov    $0x0,%esi
  401e0d:	bf 00 00 00 00       	mov    $0x0,%edi
  401e12:	e8 61 fc ff ff       	callq  401a78 <notify_server>
  401e17:	bf 01 00 00 00       	mov    $0x1,%edi
  401e1c:	e8 cf ef ff ff       	callq  400df0 <exit@plt>

0000000000401e21 <sigalrmhandler>:
  401e21:	48 83 ec 08          	sub    $0x8,%rsp
  401e25:	83 3d dc 36 20 00 00 	cmpl   $0x0,0x2036dc(%rip)        # 605508 <is_checker>
  401e2c:	74 14                	je     401e42 <sigalrmhandler+0x21>
  401e2e:	bf d4 32 40 00       	mov    $0x4032d4,%edi
  401e33:	e8 18 ee ff ff       	callq  400c50 <puts@plt>
  401e38:	b8 00 00 00 00       	mov    $0x0,%eax
  401e3d:	e8 5b fb ff ff       	callq  40199d <check_fail>
  401e42:	be 05 00 00 00       	mov    $0x5,%esi
  401e47:	bf 70 34 40 00       	mov    $0x403470,%edi
  401e4c:	b8 00 00 00 00       	mov    $0x0,%eax
  401e51:	e8 2a ee ff ff       	callq  400c80 <printf@plt>
  401e56:	be 00 00 00 00       	mov    $0x0,%esi
  401e5b:	bf 00 00 00 00       	mov    $0x0,%edi
  401e60:	e8 13 fc ff ff       	callq  401a78 <notify_server>
  401e65:	bf 01 00 00 00       	mov    $0x1,%edi
  401e6a:	e8 81 ef ff ff       	callq  400df0 <exit@plt>

0000000000401e6f <launch>:
  401e6f:	55                   	push   %rbp
  401e70:	48 89 e5             	mov    %rsp,%rbp
  401e73:	48 89 fa             	mov    %rdi,%rdx
  401e76:	48 8d 47 1e          	lea    0x1e(%rdi),%rax
  401e7a:	48 83 e0 f0          	and    $0xfffffffffffffff0,%rax
  401e7e:	48 29 c4             	sub    %rax,%rsp
  401e81:	48 8d 7c 24 0f       	lea    0xf(%rsp),%rdi
  401e86:	48 83 e7 f0          	and    $0xfffffffffffffff0,%rdi
  401e8a:	be f4 00 00 00       	mov    $0xf4,%esi
  401e8f:	e8 fc ed ff ff       	callq  400c90 <memset@plt>
  401e94:	48 8b 05 25 36 20 00 	mov    0x203625(%rip),%rax        # 6054c0 <stdin@@GLIBC_2.2.5>
  401e9b:	48 39 05 4e 36 20 00 	cmp    %rax,0x20364e(%rip)        # 6054f0 <infile>
  401ea2:	75 0f                	jne    401eb3 <launch+0x44>
  401ea4:	bf dc 32 40 00       	mov    $0x4032dc,%edi
  401ea9:	b8 00 00 00 00       	mov    $0x0,%eax
  401eae:	e8 cd ed ff ff       	callq  400c80 <printf@plt>
  401eb3:	c7 05 3f 36 20 00 00 	movl   $0x0,0x20363f(%rip)        # 6054fc <vlevel>
  401eba:	00 00 00 
  401ebd:	b8 00 00 00 00       	mov    $0x0,%eax
  401ec2:	e8 8f f9 ff ff       	callq  401856 <test>
  401ec7:	83 3d 3a 36 20 00 00 	cmpl   $0x0,0x20363a(%rip)        # 605508 <is_checker>
  401ece:	74 14                	je     401ee4 <launch+0x75>
  401ed0:	bf e9 32 40 00       	mov    $0x4032e9,%edi
  401ed5:	e8 76 ed ff ff       	callq  400c50 <puts@plt>
  401eda:	b8 00 00 00 00       	mov    $0x0,%eax
  401edf:	e8 b9 fa ff ff       	callq  40199d <check_fail>
  401ee4:	bf f4 32 40 00       	mov    $0x4032f4,%edi
  401ee9:	e8 62 ed ff ff       	callq  400c50 <puts@plt>
  401eee:	c9                   	leaveq 
  401eef:	c3                   	retq   

0000000000401ef0 <stable_launch>:
  401ef0:	48 83 ec 08          	sub    $0x8,%rsp
  401ef4:	48 89 3d ed 35 20 00 	mov    %rdi,0x2035ed(%rip)        # 6054e8 <global_offset>
  401efb:	41 b9 00 00 00 00    	mov    $0x0,%r9d
  401f01:	41 b8 00 00 00 00    	mov    $0x0,%r8d
  401f07:	b9 32 01 00 00       	mov    $0x132,%ecx
  401f0c:	ba 07 00 00 00       	mov    $0x7,%edx
  401f11:	be 00 00 10 00       	mov    $0x100000,%esi
  401f16:	bf 00 60 58 55       	mov    $0x55586000,%edi
  401f1b:	e8 50 ed ff ff       	callq  400c70 <mmap@plt>
  401f20:	48 3d 00 60 58 55    	cmp    $0x55586000,%rax
  401f26:	74 32                	je     401f5a <stable_launch+0x6a>
  401f28:	be 00 00 10 00       	mov    $0x100000,%esi
  401f2d:	48 89 c7             	mov    %rax,%rdi
  401f30:	e8 4b ee ff ff       	callq  400d80 <munmap@plt>
  401f35:	ba 00 60 58 55       	mov    $0x55586000,%edx
  401f3a:	be a8 34 40 00       	mov    $0x4034a8,%esi
  401f3f:	48 8b 3d 8a 35 20 00 	mov    0x20358a(%rip),%rdi        # 6054d0 <stderr@@GLIBC_2.2.5>
  401f46:	b8 00 00 00 00       	mov    $0x0,%eax
  401f4b:	e8 b0 ed ff ff       	callq  400d00 <fprintf@plt>
  401f50:	bf 01 00 00 00       	mov    $0x1,%edi
  401f55:	e8 96 ee ff ff       	callq  400df0 <exit@plt>
  401f5a:	48 c7 05 cb 41 20 00 	movq   $0x55685ff8,0x2041cb(%rip)        # 606130 <stack_top>
  401f61:	f8 5f 68 55 
  401f65:	ba f8 5f 68 55       	mov    $0x55685ff8,%edx
  401f6a:	48 89 e0             	mov    %rsp,%rax
  401f6d:	48 89 d4             	mov    %rdx,%rsp
  401f70:	48 89 c2             	mov    %rax,%rdx
  401f73:	48 89 15 66 35 20 00 	mov    %rdx,0x203566(%rip)        # 6054e0 <global_save_stack>
  401f7a:	48 8b 3d 67 35 20 00 	mov    0x203567(%rip),%rdi        # 6054e8 <global_offset>
  401f81:	e8 e9 fe ff ff       	callq  401e6f <launch>
  401f86:	48 8b 05 53 35 20 00 	mov    0x203553(%rip),%rax        # 6054e0 <global_save_stack>
  401f8d:	48 89 c4             	mov    %rax,%rsp
  401f90:	be 00 00 10 00       	mov    $0x100000,%esi
  401f95:	bf 00 60 58 55       	mov    $0x55586000,%edi
  401f9a:	e8 e1 ed ff ff       	callq  400d80 <munmap@plt>
  401f9f:	48 83 c4 08          	add    $0x8,%rsp
  401fa3:	c3                   	retq   
  401fa4:	66 2e 0f 1f 84 00 00 	nopw   %cs:0x0(%rax,%rax,1)
  401fab:	00 00 00 
  401fae:	66 90                	xchg   %ax,%ax

0000000000401fb0 <sigalrm_handler>:
  401fb0:	48 83 ec 08          	sub    $0x8,%rsp
  401fb4:	ba 00 00 00 00       	mov    $0x0,%edx
  401fb9:	be e0 34 40 00       	mov    $0x4034e0,%esi
  401fbe:	48 8b 3d 0b 35 20 00 	mov    0x20350b(%rip),%rdi        # 6054d0 <stderr@@GLIBC_2.2.5>
  401fc5:	b8 00 00 00 00       	mov    $0x0,%eax
  401fca:	e8 31 ed ff ff       	callq  400d00 <fprintf@plt>
  401fcf:	bf 01 00 00 00       	mov    $0x1,%edi
  401fd4:	e8 17 ee ff ff       	callq  400df0 <exit@plt>

0000000000401fd9 <rio_readlineb>:
  401fd9:	41 57                	push   %r15
  401fdb:	41 56                	push   %r14
  401fdd:	41 55                	push   %r13
  401fdf:	41 54                	push   %r12
  401fe1:	55                   	push   %rbp
  401fe2:	53                   	push   %rbx
  401fe3:	48 83 ec 38          	sub    $0x38,%rsp
  401fe7:	49 89 f6             	mov    %rsi,%r14
  401fea:	48 89 54 24 18       	mov    %rdx,0x18(%rsp)
  401fef:	48 83 fa 01          	cmp    $0x1,%rdx
  401ff3:	0f 86 bd 00 00 00    	jbe    4020b6 <rio_readlineb+0xdd>
  401ff9:	48 89 fb             	mov    %rdi,%rbx
  401ffc:	41 bd 01 00 00 00    	mov    $0x1,%r13d
  402002:	4c 8d 67 10          	lea    0x10(%rdi),%r12
  402006:	eb 2e                	jmp    402036 <rio_readlineb+0x5d>
  402008:	ba 00 20 00 00       	mov    $0x2000,%edx
  40200d:	4c 89 e6             	mov    %r12,%rsi
  402010:	8b 3b                	mov    (%rbx),%edi
  402012:	e8 a9 ec ff ff       	callq  400cc0 <read@plt>
  402017:	89 43 04             	mov    %eax,0x4(%rbx)
  40201a:	85 c0                	test   %eax,%eax
  40201c:	79 0f                	jns    40202d <rio_readlineb+0x54>
  40201e:	e8 ed eb ff ff       	callq  400c10 <__errno_location@plt>
  402023:	83 38 04             	cmpl   $0x4,(%rax)
  402026:	74 0e                	je     402036 <rio_readlineb+0x5d>
  402028:	e9 98 00 00 00       	jmpq   4020c5 <rio_readlineb+0xec>
  40202d:	85 c0                	test   %eax,%eax
  40202f:	90                   	nop
  402030:	74 6c                	je     40209e <rio_readlineb+0xc5>
  402032:	4c 89 63 08          	mov    %r12,0x8(%rbx)
  402036:	8b 6b 04             	mov    0x4(%rbx),%ebp
  402039:	85 ed                	test   %ebp,%ebp
  40203b:	7e cb                	jle    402008 <rio_readlineb+0x2f>
  40203d:	85 ed                	test   %ebp,%ebp
  40203f:	41 0f 95 c7          	setne  %r15b
  402043:	41 0f b6 c7          	movzbl %r15b,%eax
  402047:	89 44 24 0c          	mov    %eax,0xc(%rsp)
  40204b:	45 0f b6 ff          	movzbl %r15b,%r15d
  40204f:	48 8b 4b 08          	mov    0x8(%rbx),%rcx
  402053:	4c 89 fa             	mov    %r15,%rdx
  402056:	48 89 4c 24 10       	mov    %rcx,0x10(%rsp)
  40205b:	48 89 ce             	mov    %rcx,%rsi
  40205e:	48 8d 7c 24 2f       	lea    0x2f(%rsp),%rdi
  402063:	e8 c8 ec ff ff       	callq  400d30 <memcpy@plt>
  402068:	4c 03 7c 24 10       	add    0x10(%rsp),%r15
  40206d:	4c 89 7b 08          	mov    %r15,0x8(%rbx)
  402071:	8b 44 24 0c          	mov    0xc(%rsp),%eax
  402075:	29 c5                	sub    %eax,%ebp
  402077:	89 6b 04             	mov    %ebp,0x4(%rbx)
  40207a:	83 f8 01             	cmp    $0x1,%eax
  40207d:	75 13                	jne    402092 <rio_readlineb+0xb9>
  40207f:	49 83 c6 01          	add    $0x1,%r14
  402083:	0f b6 44 24 2f       	movzbl 0x2f(%rsp),%eax
  402088:	41 88 46 ff          	mov    %al,-0x1(%r14)
  40208c:	3c 0a                	cmp    $0xa,%al
  40208e:	75 19                	jne    4020a9 <rio_readlineb+0xd0>
  402090:	eb 2a                	jmp    4020bc <rio_readlineb+0xe3>
  402092:	83 7c 24 0c 00       	cmpl   $0x0,0xc(%rsp)
  402097:	75 35                	jne    4020ce <rio_readlineb+0xf5>
  402099:	4c 89 e8             	mov    %r13,%rax
  40209c:	eb 03                	jmp    4020a1 <rio_readlineb+0xc8>
  40209e:	4c 89 e8             	mov    %r13,%rax
  4020a1:	48 83 f8 01          	cmp    $0x1,%rax
  4020a5:	75 15                	jne    4020bc <rio_readlineb+0xe3>
  4020a7:	eb 2e                	jmp    4020d7 <rio_readlineb+0xfe>
  4020a9:	49 83 c5 01          	add    $0x1,%r13
  4020ad:	4c 3b 6c 24 18       	cmp    0x18(%rsp),%r13
  4020b2:	74 08                	je     4020bc <rio_readlineb+0xe3>
  4020b4:	eb 80                	jmp    402036 <rio_readlineb+0x5d>
  4020b6:	41 bd 01 00 00 00    	mov    $0x1,%r13d
  4020bc:	41 c6 06 00          	movb   $0x0,(%r14)
  4020c0:	4c 89 e8             	mov    %r13,%rax
  4020c3:	eb 17                	jmp    4020dc <rio_readlineb+0x103>
  4020c5:	48 c7 c0 ff ff ff ff 	mov    $0xffffffffffffffff,%rax
  4020cc:	eb 0e                	jmp    4020dc <rio_readlineb+0x103>
  4020ce:	48 c7 c0 ff ff ff ff 	mov    $0xffffffffffffffff,%rax
  4020d5:	eb 05                	jmp    4020dc <rio_readlineb+0x103>
  4020d7:	b8 00 00 00 00       	mov    $0x0,%eax
  4020dc:	48 83 c4 38          	add    $0x38,%rsp
  4020e0:	5b                   	pop    %rbx
  4020e1:	5d                   	pop    %rbp
  4020e2:	41 5c                	pop    %r12
  4020e4:	41 5d                	pop    %r13
  4020e6:	41 5e                	pop    %r14
  4020e8:	41 5f                	pop    %r15
  4020ea:	c3                   	retq   

00000000004020eb <submitr>:
  4020eb:	41 57                	push   %r15
  4020ed:	41 56                	push   %r14
  4020ef:	41 55                	push   %r13
  4020f1:	41 54                	push   %r12
  4020f3:	55                   	push   %rbp
  4020f4:	53                   	push   %rbx
  4020f5:	48 81 ec 58 a0 00 00 	sub    $0xa058,%rsp
  4020fc:	49 89 ff             	mov    %rdi,%r15
  4020ff:	89 f5                	mov    %esi,%ebp
  402101:	48 89 14 24          	mov    %rdx,(%rsp)
  402105:	48 89 4c 24 08       	mov    %rcx,0x8(%rsp)
  40210a:	4d 89 c5             	mov    %r8,%r13
  40210d:	4c 89 cb             	mov    %r9,%rbx
  402110:	4c 8b b4 24 90 a0 00 	mov    0xa090(%rsp),%r14
  402117:	00 
  402118:	c7 84 24 2c 20 00 00 	movl   $0x0,0x202c(%rsp)
  40211f:	00 00 00 00 
  402123:	ba 00 00 00 00       	mov    $0x0,%edx
  402128:	be 01 00 00 00       	mov    $0x1,%esi
  40212d:	bf 02 00 00 00       	mov    $0x2,%edi
  402132:	e8 d9 ec ff ff       	callq  400e10 <socket@plt>
  402137:	41 89 c4             	mov    %eax,%r12d
  40213a:	85 c0                	test   %eax,%eax
  40213c:	79 50                	jns    40218e <submitr+0xa3>
  40213e:	48 b8 45 72 72 6f 72 	movabs $0x43203a726f727245,%rax
  402145:	3a 20 43 
  402148:	49 89 06             	mov    %rax,(%r14)
  40214b:	48 b8 6c 69 65 6e 74 	movabs $0x6e7520746e65696c,%rax
  402152:	20 75 6e 
  402155:	49 89 46 08          	mov    %rax,0x8(%r14)
  402159:	48 b8 61 62 6c 65 20 	movabs $0x206f7420656c6261,%rax
  402160:	74 6f 20 
  402163:	49 89 46 10          	mov    %rax,0x10(%r14)
  402167:	48 b8 63 72 65 61 74 	movabs $0x7320657461657263,%rax
  40216e:	65 20 73 
  402171:	49 89 46 18          	mov    %rax,0x18(%r14)
  402175:	41 c7 46 20 6f 63 6b 	movl   $0x656b636f,0x20(%r14)
  40217c:	65 
  40217d:	66 41 c7 46 24 74 00 	movw   $0x74,0x24(%r14)
  402184:	b8 ff ff ff ff       	mov    $0xffffffff,%eax
  402189:	e9 b3 07 00 00       	jmpq   402941 <submitr+0x856>
  40218e:	4c 89 ff             	mov    %r15,%rdi
  402191:	e8 5a eb ff ff       	callq  400cf0 <gethostbyname@plt>
  402196:	48 85 c0             	test   %rax,%rax
  402199:	75 6b                	jne    402206 <submitr+0x11b>
  40219b:	48 b8 45 72 72 6f 72 	movabs $0x44203a726f727245,%rax
  4021a2:	3a 20 44 
  4021a5:	49 89 06             	mov    %rax,(%r14)
  4021a8:	48 b8 4e 53 20 69 73 	movabs $0x6e7520736920534e,%rax
  4021af:	20 75 6e 
  4021b2:	49 89 46 08          	mov    %rax,0x8(%r14)
  4021b6:	48 b8 61 62 6c 65 20 	movabs $0x206f7420656c6261,%rax
  4021bd:	74 6f 20 
  4021c0:	49 89 46 10          	mov    %rax,0x10(%r14)
  4021c4:	48 b8 72 65 73 6f 6c 	movabs $0x2065766c6f736572,%rax
  4021cb:	76 65 20 
  4021ce:	49 89 46 18          	mov    %rax,0x18(%r14)
  4021d2:	48 b8 73 65 72 76 65 	movabs $0x6120726576726573,%rax
  4021d9:	72 20 61 
  4021dc:	49 89 46 20          	mov    %rax,0x20(%r14)
  4021e0:	41 c7 46 28 64 64 72 	movl   $0x65726464,0x28(%r14)
  4021e7:	65 
  4021e8:	66 41 c7 46 2c 73 73 	movw   $0x7373,0x2c(%r14)
  4021ef:	41 c6 46 2e 00       	movb   $0x0,0x2e(%r14)
  4021f4:	44 89 e7             	mov    %r12d,%edi
  4021f7:	e8 b4 ea ff ff       	callq  400cb0 <close@plt>
  4021fc:	b8 ff ff ff ff       	mov    $0xffffffff,%eax
  402201:	e9 3b 07 00 00       	jmpq   402941 <submitr+0x856>
  402206:	48 c7 84 24 40 a0 00 	movq   $0x0,0xa040(%rsp)
  40220d:	00 00 00 00 00 
  402212:	48 c7 84 24 48 a0 00 	movq   $0x0,0xa048(%rsp)
  402219:	00 00 00 00 00 
  40221e:	66 c7 84 24 40 a0 00 	movw   $0x2,0xa040(%rsp)
  402225:	00 02 00 
  402228:	48 63 50 14          	movslq 0x14(%rax),%rdx
  40222c:	48 8d b4 24 44 a0 00 	lea    0xa044(%rsp),%rsi
  402233:	00 
  402234:	48 8b 40 18          	mov    0x18(%rax),%rax
  402238:	48 8b 38             	mov    (%rax),%rdi
  40223b:	e8 50 eb ff ff       	callq  400d90 <bcopy@plt>
  402240:	66 c1 cd 08          	ror    $0x8,%bp
  402244:	66 89 ac 24 42 a0 00 	mov    %bp,0xa042(%rsp)
  40224b:	00 
  40224c:	ba 10 00 00 00       	mov    $0x10,%edx
  402251:	48 8d b4 24 40 a0 00 	lea    0xa040(%rsp),%rsi
  402258:	00 
  402259:	44 89 e7             	mov    %r12d,%edi
  40225c:	e8 9f eb ff ff       	callq  400e00 <connect@plt>
  402261:	85 c0                	test   %eax,%eax
  402263:	79 5d                	jns    4022c2 <submitr+0x1d7>
  402265:	48 b8 45 72 72 6f 72 	movabs $0x55203a726f727245,%rax
  40226c:	3a 20 55 
  40226f:	49 89 06             	mov    %rax,(%r14)
  402272:	48 b8 6e 61 62 6c 65 	movabs $0x6f7420656c62616e,%rax
  402279:	20 74 6f 
  40227c:	49 89 46 08          	mov    %rax,0x8(%r14)
  402280:	48 b8 20 63 6f 6e 6e 	movabs $0x7463656e6e6f6320,%rax
  402287:	65 63 74 
  40228a:	49 89 46 10          	mov    %rax,0x10(%r14)
  40228e:	48 b8 20 74 6f 20 74 	movabs $0x20656874206f7420,%rax
  402295:	68 65 20 
  402298:	49 89 46 18          	mov    %rax,0x18(%r14)
  40229c:	41 c7 46 20 73 65 72 	movl   $0x76726573,0x20(%r14)
  4022a3:	76 
  4022a4:	66 41 c7 46 24 65 72 	movw   $0x7265,0x24(%r14)
  4022ab:	41 c6 46 26 00       	movb   $0x0,0x26(%r14)
  4022b0:	44 89 e7             	mov    %r12d,%edi
  4022b3:	e8 f8 e9 ff ff       	callq  400cb0 <close@plt>
  4022b8:	b8 ff ff ff ff       	mov    $0xffffffff,%eax
  4022bd:	e9 7f 06 00 00       	jmpq   402941 <submitr+0x856>
  4022c2:	48 c7 c2 ff ff ff ff 	mov    $0xffffffffffffffff,%rdx
  4022c9:	48 89 df             	mov    %rbx,%rdi
  4022cc:	b8 00 00 00 00       	mov    $0x0,%eax
  4022d1:	48 89 d1             	mov    %rdx,%rcx
  4022d4:	f2 ae                	repnz scas %es:(%rdi),%al
  4022d6:	48 f7 d1             	not    %rcx
  4022d9:	48 89 ce             	mov    %rcx,%rsi
  4022dc:	48 8b 3c 24          	mov    (%rsp),%rdi
  4022e0:	48 89 d1             	mov    %rdx,%rcx
  4022e3:	f2 ae                	repnz scas %es:(%rdi),%al
  4022e5:	49 89 c8             	mov    %rcx,%r8
  4022e8:	48 8b 7c 24 08       	mov    0x8(%rsp),%rdi
  4022ed:	48 89 d1             	mov    %rdx,%rcx
  4022f0:	f2 ae                	repnz scas %es:(%rdi),%al
  4022f2:	48 f7 d1             	not    %rcx
  4022f5:	49 89 c9             	mov    %rcx,%r9
  4022f8:	4c 89 ef             	mov    %r13,%rdi
  4022fb:	48 89 d1             	mov    %rdx,%rcx
  4022fe:	f2 ae                	repnz scas %es:(%rdi),%al
  402300:	4d 29 c1             	sub    %r8,%r9
  402303:	49 29 c9             	sub    %rcx,%r9
  402306:	48 8d 44 76 fd       	lea    -0x3(%rsi,%rsi,2),%rax
  40230b:	49 8d 44 01 7b       	lea    0x7b(%r9,%rax,1),%rax
  402310:	48 3d 00 20 00 00    	cmp    $0x2000,%rax
  402316:	76 73                	jbe    40238b <submitr+0x2a0>
  402318:	48 b8 45 72 72 6f 72 	movabs $0x52203a726f727245,%rax
  40231f:	3a 20 52 
  402322:	49 89 06             	mov    %rax,(%r14)
  402325:	48 b8 65 73 75 6c 74 	movabs $0x747320746c757365,%rax
  40232c:	20 73 74 
  40232f:	49 89 46 08          	mov    %rax,0x8(%r14)
  402333:	48 b8 72 69 6e 67 20 	movabs $0x6f6f7420676e6972,%rax
  40233a:	74 6f 6f 
  40233d:	49 89 46 10          	mov    %rax,0x10(%r14)
  402341:	48 b8 20 6c 61 72 67 	movabs $0x202e656772616c20,%rax
  402348:	65 2e 20 
  40234b:	49 89 46 18          	mov    %rax,0x18(%r14)
  40234f:	48 b8 49 6e 63 72 65 	movabs $0x6573616572636e49,%rax
  402356:	61 73 65 
  402359:	49 89 46 20          	mov    %rax,0x20(%r14)
  40235d:	48 b8 20 53 55 42 4d 	movabs $0x5254494d42555320,%rax
  402364:	49 54 52 
  402367:	49 89 46 28          	mov    %rax,0x28(%r14)
  40236b:	48 b8 5f 4d 41 58 42 	movabs $0x46554258414d5f,%rax
  402372:	55 46 00 
  402375:	49 89 46 30          	mov    %rax,0x30(%r14)
  402379:	44 89 e7             	mov    %r12d,%edi
  40237c:	e8 2f e9 ff ff       	callq  400cb0 <close@plt>
  402381:	b8 ff ff ff ff       	mov    $0xffffffff,%eax
  402386:	e9 b6 05 00 00       	jmpq   402941 <submitr+0x856>
  40238b:	48 8d 94 24 30 40 00 	lea    0x4030(%rsp),%rdx
  402392:	00 
  402393:	b9 00 04 00 00       	mov    $0x400,%ecx
  402398:	b8 00 00 00 00       	mov    $0x0,%eax
  40239d:	48 89 d7             	mov    %rdx,%rdi
  4023a0:	f3 48 ab             	rep stos %rax,%es:(%rdi)
  4023a3:	48 89 df             	mov    %rbx,%rdi
  4023a6:	48 c7 c1 ff ff ff ff 	mov    $0xffffffffffffffff,%rcx
  4023ad:	f2 ae                	repnz scas %es:(%rdi),%al
  4023af:	48 f7 d1             	not    %rcx
  4023b2:	48 83 e9 01          	sub    $0x1,%rcx
  4023b6:	85 c9                	test   %ecx,%ecx
  4023b8:	0f 84 50 04 00 00    	je     40280e <submitr+0x723>
  4023be:	8d 41 ff             	lea    -0x1(%rcx),%eax
  4023c1:	4c 8d 6c 03 01       	lea    0x1(%rbx,%rax,1),%r13
  4023c6:	48 89 d5             	mov    %rdx,%rbp
  4023c9:	0f b6 13             	movzbl (%rbx),%edx
  4023cc:	80 fa 2a             	cmp    $0x2a,%dl
  4023cf:	74 1f                	je     4023f0 <submitr+0x305>
  4023d1:	8d 42 d3             	lea    -0x2d(%rdx),%eax
  4023d4:	3c 01                	cmp    $0x1,%al
  4023d6:	76 18                	jbe    4023f0 <submitr+0x305>
  4023d8:	80 fa 5f             	cmp    $0x5f,%dl
  4023db:	74 13                	je     4023f0 <submitr+0x305>
  4023dd:	8d 42 d0             	lea    -0x30(%rdx),%eax
  4023e0:	3c 09                	cmp    $0x9,%al
  4023e2:	76 0c                	jbe    4023f0 <submitr+0x305>
  4023e4:	89 d0                	mov    %edx,%eax
  4023e6:	83 e0 df             	and    $0xffffffdf,%eax
  4023e9:	83 e8 41             	sub    $0x41,%eax
  4023ec:	3c 19                	cmp    $0x19,%al
  4023ee:	77 09                	ja     4023f9 <submitr+0x30e>
  4023f0:	48 8d 45 01          	lea    0x1(%rbp),%rax
  4023f4:	88 55 00             	mov    %dl,0x0(%rbp)
  4023f7:	eb 52                	jmp    40244b <submitr+0x360>
  4023f9:	80 fa 20             	cmp    $0x20,%dl
  4023fc:	75 0a                	jne    402408 <submitr+0x31d>
  4023fe:	48 8d 45 01          	lea    0x1(%rbp),%rax
  402402:	c6 45 00 2b          	movb   $0x2b,0x0(%rbp)
  402406:	eb 43                	jmp    40244b <submitr+0x360>
  402408:	8d 42 e0             	lea    -0x20(%rdx),%eax
  40240b:	3c 5f                	cmp    $0x5f,%al
  40240d:	76 09                	jbe    402418 <submitr+0x32d>
  40240f:	80 fa 09             	cmp    $0x9,%dl
  402412:	0f 85 57 04 00 00    	jne    40286f <submitr+0x784>
  402418:	0f b6 d2             	movzbl %dl,%edx
  40241b:	be 78 35 40 00       	mov    $0x403578,%esi
  402420:	48 8d 7c 24 10       	lea    0x10(%rsp),%rdi
  402425:	b8 00 00 00 00       	mov    $0x0,%eax
  40242a:	e8 b1 e9 ff ff       	callq  400de0 <sprintf@plt>
  40242f:	0f b6 44 24 10       	movzbl 0x10(%rsp),%eax
  402434:	88 45 00             	mov    %al,0x0(%rbp)
  402437:	0f b6 44 24 11       	movzbl 0x11(%rsp),%eax
  40243c:	88 45 01             	mov    %al,0x1(%rbp)
  40243f:	48 8d 45 03          	lea    0x3(%rbp),%rax
  402443:	0f b6 54 24 12       	movzbl 0x12(%rsp),%edx
  402448:	88 55 02             	mov    %dl,0x2(%rbp)
  40244b:	48 83 c3 01          	add    $0x1,%rbx
  40244f:	4c 39 eb             	cmp    %r13,%rbx
  402452:	0f 84 b6 03 00 00    	je     40280e <submitr+0x723>
  402458:	48 89 c5             	mov    %rax,%rbp
  40245b:	e9 69 ff ff ff       	jmpq   4023c9 <submitr+0x2de>
  402460:	48 89 da             	mov    %rbx,%rdx
  402463:	48 89 ee             	mov    %rbp,%rsi
  402466:	44 89 e7             	mov    %r12d,%edi
  402469:	e8 f2 e7 ff ff       	callq  400c60 <write@plt>
  40246e:	48 85 c0             	test   %rax,%rax
  402471:	7f 0f                	jg     402482 <submitr+0x397>
  402473:	e8 98 e7 ff ff       	callq  400c10 <__errno_location@plt>
  402478:	83 38 04             	cmpl   $0x4,(%rax)
  40247b:	75 12                	jne    40248f <submitr+0x3a4>
  40247d:	b8 00 00 00 00       	mov    $0x0,%eax
  402482:	48 01 c5             	add    %rax,%rbp
  402485:	48 29 c3             	sub    %rax,%rbx
  402488:	75 d6                	jne    402460 <submitr+0x375>
  40248a:	4d 85 ed             	test   %r13,%r13
  40248d:	79 71                	jns    402500 <submitr+0x415>
  40248f:	48 b8 45 72 72 6f 72 	movabs $0x43203a726f727245,%rax
  402496:	3a 20 43 
  402499:	49 89 06             	mov    %rax,(%r14)
  40249c:	48 b8 6c 69 65 6e 74 	movabs $0x6e7520746e65696c,%rax
  4024a3:	20 75 6e 
  4024a6:	49 89 46 08          	mov    %rax,0x8(%r14)
  4024aa:	48 b8 61 62 6c 65 20 	movabs $0x206f7420656c6261,%rax
  4024b1:	74 6f 20 
  4024b4:	49 89 46 10          	mov    %rax,0x10(%r14)
  4024b8:	48 b8 77 72 69 74 65 	movabs $0x6f74206574697277,%rax
  4024bf:	20 74 6f 
  4024c2:	49 89 46 18          	mov    %rax,0x18(%r14)
  4024c6:	48 b8 20 74 68 65 20 	movabs $0x7365722065687420,%rax
  4024cd:	72 65 73 
  4024d0:	49 89 46 20          	mov    %rax,0x20(%r14)
  4024d4:	48 b8 75 6c 74 20 73 	movabs $0x7672657320746c75,%rax
  4024db:	65 72 76 
  4024de:	49 89 46 28          	mov    %rax,0x28(%r14)
  4024e2:	66 41 c7 46 30 65 72 	movw   $0x7265,0x30(%r14)
  4024e9:	41 c6 46 32 00       	movb   $0x0,0x32(%r14)
  4024ee:	44 89 e7             	mov    %r12d,%edi
  4024f1:	e8 ba e7 ff ff       	callq  400cb0 <close@plt>
  4024f6:	b8 ff ff ff ff       	mov    $0xffffffff,%eax
  4024fb:	e9 41 04 00 00       	jmpq   402941 <submitr+0x856>
  402500:	44 89 a4 24 30 80 00 	mov    %r12d,0x8030(%rsp)
  402507:	00 
  402508:	c7 84 24 34 80 00 00 	movl   $0x0,0x8034(%rsp)
  40250f:	00 00 00 00 
  402513:	48 8d 84 24 40 80 00 	lea    0x8040(%rsp),%rax
  40251a:	00 
  40251b:	48 89 84 24 38 80 00 	mov    %rax,0x8038(%rsp)
  402522:	00 
  402523:	ba 00 20 00 00       	mov    $0x2000,%edx
  402528:	48 8d b4 24 30 60 00 	lea    0x6030(%rsp),%rsi
  40252f:	00 
  402530:	48 8d bc 24 30 80 00 	lea    0x8030(%rsp),%rdi
  402537:	00 
  402538:	e8 9c fa ff ff       	callq  401fd9 <rio_readlineb>
  40253d:	48 85 c0             	test   %rax,%rax
  402540:	0f 8f 80 00 00 00    	jg     4025c6 <submitr+0x4db>
  402546:	48 b8 45 72 72 6f 72 	movabs $0x43203a726f727245,%rax
  40254d:	3a 20 43 
  402550:	49 89 06             	mov    %rax,(%r14)
  402553:	48 b8 6c 69 65 6e 74 	movabs $0x6e7520746e65696c,%rax
  40255a:	20 75 6e 
  40255d:	49 89 46 08          	mov    %rax,0x8(%r14)
  402561:	48 b8 61 62 6c 65 20 	movabs $0x206f7420656c6261,%rax
  402568:	74 6f 20 
  40256b:	49 89 46 10          	mov    %rax,0x10(%r14)
  40256f:	48 b8 72 65 61 64 20 	movabs $0x7269662064616572,%rax
  402576:	66 69 72 
  402579:	49 89 46 18          	mov    %rax,0x18(%r14)
  40257d:	48 b8 73 74 20 68 65 	movabs $0x6564616568207473,%rax
  402584:	61 64 65 
  402587:	49 89 46 20          	mov    %rax,0x20(%r14)
  40258b:	48 b8 72 20 66 72 6f 	movabs $0x72206d6f72662072,%rax
  402592:	6d 20 72 
  402595:	49 89 46 28          	mov    %rax,0x28(%r14)
  402599:	48 b8 65 73 75 6c 74 	movabs $0x657320746c757365,%rax
  4025a0:	20 73 65 
  4025a3:	49 89 46 30          	mov    %rax,0x30(%r14)
  4025a7:	41 c7 46 38 72 76 65 	movl   $0x72657672,0x38(%r14)
  4025ae:	72 
  4025af:	41 c6 46 3c 00       	movb   $0x0,0x3c(%r14)
  4025b4:	44 89 e7             	mov    %r12d,%edi
  4025b7:	e8 f4 e6 ff ff       	callq  400cb0 <close@plt>
  4025bc:	b8 ff ff ff ff       	mov    $0xffffffff,%eax
  4025c1:	e9 7b 03 00 00       	jmpq   402941 <submitr+0x856>
  4025c6:	4c 8d 44 24 20       	lea    0x20(%rsp),%r8
  4025cb:	48 8d 8c 24 2c 20 00 	lea    0x202c(%rsp),%rcx
  4025d2:	00 
  4025d3:	48 8d 94 24 30 20 00 	lea    0x2030(%rsp),%rdx
  4025da:	00 
  4025db:	be 7f 35 40 00       	mov    $0x40357f,%esi
  4025e0:	48 8d bc 24 30 60 00 	lea    0x6030(%rsp),%rdi
  4025e7:	00 
  4025e8:	b8 00 00 00 00       	mov    $0x0,%eax
  4025ed:	e8 7e e7 ff ff       	callq  400d70 <__isoc99_sscanf@plt>
  4025f2:	e9 9a 00 00 00       	jmpq   402691 <submitr+0x5a6>
  4025f7:	ba 00 20 00 00       	mov    $0x2000,%edx
  4025fc:	48 8d b4 24 30 60 00 	lea    0x6030(%rsp),%rsi
  402603:	00 
  402604:	48 8d bc 24 30 80 00 	lea    0x8030(%rsp),%rdi
  40260b:	00 
  40260c:	e8 c8 f9 ff ff       	callq  401fd9 <rio_readlineb>
  402611:	48 85 c0             	test   %rax,%rax
  402614:	7f 7b                	jg     402691 <submitr+0x5a6>
  402616:	48 b8 45 72 72 6f 72 	movabs $0x43203a726f727245,%rax
  40261d:	3a 20 43 
  402620:	49 89 06             	mov    %rax,(%r14)
  402623:	48 b8 6c 69 65 6e 74 	movabs $0x6e7520746e65696c,%rax
  40262a:	20 75 6e 
  40262d:	49 89 46 08          	mov    %rax,0x8(%r14)
  402631:	48 b8 61 62 6c 65 20 	movabs $0x206f7420656c6261,%rax
  402638:	74 6f 20 
  40263b:	49 89 46 10          	mov    %rax,0x10(%r14)
  40263f:	48 b8 72 65 61 64 20 	movabs $0x6165682064616572,%rax
  402646:	68 65 61 
  402649:	49 89 46 18          	mov    %rax,0x18(%r14)
  40264d:	48 b8 64 65 72 73 20 	movabs $0x6f72662073726564,%rax
  402654:	66 72 6f 
  402657:	49 89 46 20          	mov    %rax,0x20(%r14)
  40265b:	48 b8 6d 20 74 68 65 	movabs $0x657220656874206d,%rax
  402662:	20 72 65 
  402665:	49 89 46 28          	mov    %rax,0x28(%r14)
  402669:	48 b8 73 75 6c 74 20 	movabs $0x72657320746c7573,%rax
  402670:	73 65 72 
  402673:	49 89 46 30          	mov    %rax,0x30(%r14)
  402677:	41 c7 46 38 76 65 72 	movl   $0x726576,0x38(%r14)
  40267e:	00 
  40267f:	44 89 e7             	mov    %r12d,%edi
  402682:	e8 29 e6 ff ff       	callq  400cb0 <close@plt>
  402687:	b8 ff ff ff ff       	mov    $0xffffffff,%eax
  40268c:	e9 b0 02 00 00       	jmpq   402941 <submitr+0x856>
  402691:	80 bc 24 30 60 00 00 	cmpb   $0xd,0x6030(%rsp)
  402698:	0d 
  402699:	0f 85 58 ff ff ff    	jne    4025f7 <submitr+0x50c>
  40269f:	80 bc 24 31 60 00 00 	cmpb   $0xa,0x6031(%rsp)
  4026a6:	0a 
  4026a7:	0f 85 4a ff ff ff    	jne    4025f7 <submitr+0x50c>
  4026ad:	80 bc 24 32 60 00 00 	cmpb   $0x0,0x6032(%rsp)
  4026b4:	00 
  4026b5:	0f 85 3c ff ff ff    	jne    4025f7 <submitr+0x50c>
  4026bb:	ba 00 20 00 00       	mov    $0x2000,%edx
  4026c0:	48 8d b4 24 30 60 00 	lea    0x6030(%rsp),%rsi
  4026c7:	00 
  4026c8:	48 8d bc 24 30 80 00 	lea    0x8030(%rsp),%rdi
  4026cf:	00 
  4026d0:	e8 04 f9 ff ff       	callq  401fd9 <rio_readlineb>
  4026d5:	48 85 c0             	test   %rax,%rax
  4026d8:	0f 8f 87 00 00 00    	jg     402765 <submitr+0x67a>
  4026de:	48 b8 45 72 72 6f 72 	movabs $0x43203a726f727245,%rax
  4026e5:	3a 20 43 
  4026e8:	49 89 06             	mov    %rax,(%r14)
  4026eb:	48 b8 6c 69 65 6e 74 	movabs $0x6e7520746e65696c,%rax
  4026f2:	20 75 6e 
  4026f5:	49 89 46 08          	mov    %rax,0x8(%r14)
  4026f9:	48 b8 61 62 6c 65 20 	movabs $0x206f7420656c6261,%rax
  402700:	74 6f 20 
  402703:	49 89 46 10          	mov    %rax,0x10(%r14)
  402707:	48 b8 72 65 61 64 20 	movabs $0x6174732064616572,%rax
  40270e:	73 74 61 
  402711:	49 89 46 18          	mov    %rax,0x18(%r14)
  402715:	48 b8 74 75 73 20 6d 	movabs $0x7373656d20737574,%rax
  40271c:	65 73 73 
  40271f:	49 89 46 20          	mov    %rax,0x20(%r14)
  402723:	48 b8 61 67 65 20 66 	movabs $0x6d6f726620656761,%rax
  40272a:	72 6f 6d 
  40272d:	49 89 46 28          	mov    %rax,0x28(%r14)
  402731:	48 b8 20 72 65 73 75 	movabs $0x20746c7573657220,%rax
  402738:	6c 74 20 
  40273b:	49 89 46 30          	mov    %rax,0x30(%r14)
  40273f:	41 c7 46 38 73 65 72 	movl   $0x76726573,0x38(%r14)
  402746:	76 
  402747:	66 41 c7 46 3c 65 72 	movw   $0x7265,0x3c(%r14)
  40274e:	41 c6 46 3e 00       	movb   $0x0,0x3e(%r14)
  402753:	44 89 e7             	mov    %r12d,%edi
  402756:	e8 55 e5 ff ff       	callq  400cb0 <close@plt>
  40275b:	b8 ff ff ff ff       	mov    $0xffffffff,%eax
  402760:	e9 dc 01 00 00       	jmpq   402941 <submitr+0x856>
  402765:	8b 94 24 2c 20 00 00 	mov    0x202c(%rsp),%edx
  40276c:	81 fa c8 00 00 00    	cmp    $0xc8,%edx
  402772:	74 29                	je     40279d <submitr+0x6b2>
  402774:	48 8d 4c 24 20       	lea    0x20(%rsp),%rcx
  402779:	be 08 35 40 00       	mov    $0x403508,%esi
  40277e:	4c 89 f7             	mov    %r14,%rdi
  402781:	b8 00 00 00 00       	mov    $0x0,%eax
  402786:	e8 55 e6 ff ff       	callq  400de0 <sprintf@plt>
  40278b:	44 89 e7             	mov    %r12d,%edi
  40278e:	e8 1d e5 ff ff       	callq  400cb0 <close@plt>
  402793:	b8 ff ff ff ff       	mov    $0xffffffff,%eax
  402798:	e9 a4 01 00 00       	jmpq   402941 <submitr+0x856>
  40279d:	48 8d b4 24 30 60 00 	lea    0x6030(%rsp),%rsi
  4027a4:	00 
  4027a5:	4c 89 f7             	mov    %r14,%rdi
  4027a8:	e8 93 e4 ff ff       	callq  400c40 <strcpy@plt>
  4027ad:	44 89 e7             	mov    %r12d,%edi
  4027b0:	e8 fb e4 ff ff       	callq  400cb0 <close@plt>
  4027b5:	41 0f b6 06          	movzbl (%r14),%eax
  4027b9:	83 e8 4f             	sub    $0x4f,%eax
  4027bc:	89 c2                	mov    %eax,%edx
  4027be:	0f 85 35 01 00 00    	jne    4028f9 <submitr+0x80e>
  4027c4:	41 80 7e 01 4b       	cmpb   $0x4b,0x1(%r14)
  4027c9:	0f 85 50 01 00 00    	jne    40291f <submitr+0x834>
  4027cf:	41 80 7e 02 0a       	cmpb   $0xa,0x2(%r14)
  4027d4:	0f 85 45 01 00 00    	jne    40291f <submitr+0x834>
  4027da:	41 80 7e 03 00       	cmpb   $0x0,0x3(%r14)
  4027df:	74 23                	je     402804 <submitr+0x719>
  4027e1:	e9 39 01 00 00       	jmpq   40291f <submitr+0x834>
  4027e6:	41 0f b6 56 01       	movzbl 0x1(%r14),%edx
  4027eb:	83 ea 4b             	sub    $0x4b,%edx
  4027ee:	75 05                	jne    4027f5 <submitr+0x70a>
  4027f0:	41 0f b6 56 02       	movzbl 0x2(%r14),%edx
  4027f5:	85 d2                	test   %edx,%edx
  4027f7:	0f 95 c0             	setne  %al
  4027fa:	0f b6 c0             	movzbl %al,%eax
  4027fd:	f7 d8                	neg    %eax
  4027ff:	e9 3d 01 00 00       	jmpq   402941 <submitr+0x856>
  402804:	b8 00 00 00 00       	mov    $0x0,%eax
  402809:	e9 33 01 00 00       	jmpq   402941 <submitr+0x856>
  40280e:	4d 89 f9             	mov    %r15,%r9
  402811:	4c 8d 84 24 30 40 00 	lea    0x4030(%rsp),%r8
  402818:	00 
  402819:	48 8b 0c 24          	mov    (%rsp),%rcx
  40281d:	48 8b 54 24 08       	mov    0x8(%rsp),%rdx
  402822:	be 38 35 40 00       	mov    $0x403538,%esi
  402827:	48 8d bc 24 30 60 00 	lea    0x6030(%rsp),%rdi
  40282e:	00 
  40282f:	b8 00 00 00 00       	mov    $0x0,%eax
  402834:	e8 a7 e5 ff ff       	callq  400de0 <sprintf@plt>
  402839:	48 8d bc 24 30 60 00 	lea    0x6030(%rsp),%rdi
  402840:	00 
  402841:	b8 00 00 00 00       	mov    $0x0,%eax
  402846:	48 c7 c1 ff ff ff ff 	mov    $0xffffffffffffffff,%rcx
  40284d:	f2 ae                	repnz scas %es:(%rdi),%al
  40284f:	48 f7 d1             	not    %rcx
  402852:	48 83 e9 01          	sub    $0x1,%rcx
  402856:	49 89 cd             	mov    %rcx,%r13
  402859:	0f 84 a1 fc ff ff    	je     402500 <submitr+0x415>
  40285f:	48 89 cb             	mov    %rcx,%rbx
  402862:	48 8d ac 24 30 60 00 	lea    0x6030(%rsp),%rbp
  402869:	00 
  40286a:	e9 f1 fb ff ff       	jmpq   402460 <submitr+0x375>
  40286f:	48 b8 45 72 72 6f 72 	movabs $0x52203a726f727245,%rax
  402876:	3a 20 52 
  402879:	49 89 06             	mov    %rax,(%r14)
  40287c:	48 b8 65 73 75 6c 74 	movabs $0x747320746c757365,%rax
  402883:	20 73 74 
  402886:	49 89 46 08          	mov    %rax,0x8(%r14)
  40288a:	48 b8 72 69 6e 67 20 	movabs $0x6e6f6320676e6972,%rax
  402891:	63 6f 6e 
  402894:	49 89 46 10          	mov    %rax,0x10(%r14)
  402898:	48 b8 74 61 69 6e 73 	movabs $0x6e6120736e696174,%rax
  40289f:	20 61 6e 
  4028a2:	49 89 46 18          	mov    %rax,0x18(%r14)
  4028a6:	48 b8 20 69 6c 6c 65 	movabs $0x6c6167656c6c6920,%rax
  4028ad:	67 61 6c 
  4028b0:	49 89 46 20          	mov    %rax,0x20(%r14)
  4028b4:	48 b8 20 6f 72 20 75 	movabs $0x72706e7520726f20,%rax
  4028bb:	6e 70 72 
  4028be:	49 89 46 28          	mov    %rax,0x28(%r14)
  4028c2:	48 b8 69 6e 74 61 62 	movabs $0x20656c6261746e69,%rax
  4028c9:	6c 65 20 
  4028cc:	49 89 46 30          	mov    %rax,0x30(%r14)
  4028d0:	48 b8 63 68 61 72 61 	movabs $0x6574636172616863,%rax
  4028d7:	63 74 65 
  4028da:	49 89 46 38          	mov    %rax,0x38(%r14)
  4028de:	66 41 c7 46 40 72 2e 	movw   $0x2e72,0x40(%r14)
  4028e5:	41 c6 46 42 00       	movb   $0x0,0x42(%r14)
  4028ea:	44 89 e7             	mov    %r12d,%edi
  4028ed:	e8 be e3 ff ff       	callq  400cb0 <close@plt>
  4028f2:	b8 ff ff ff ff       	mov    $0xffffffff,%eax
  4028f7:	eb 48                	jmp    402941 <submitr+0x856>
  4028f9:	bf 90 35 40 00       	mov    $0x403590,%edi
  4028fe:	b9 05 00 00 00       	mov    $0x5,%ecx
  402903:	4c 89 f6             	mov    %r14,%rsi
  402906:	f3 a6                	repz cmpsb %es:(%rdi),%ds:(%rsi)
  402908:	40 0f 97 c6          	seta   %sil
  40290c:	0f 92 c1             	setb   %cl
  40290f:	b8 00 00 00 00       	mov    $0x0,%eax
  402914:	40 38 ce             	cmp    %cl,%sil
  402917:	0f 85 d8 fe ff ff    	jne    4027f5 <submitr+0x70a>
  40291d:	eb 22                	jmp    402941 <submitr+0x856>
  40291f:	bf 90 35 40 00       	mov    $0x403590,%edi
  402924:	b9 05 00 00 00       	mov    $0x5,%ecx
  402929:	4c 89 f6             	mov    %r14,%rsi
  40292c:	f3 a6                	repz cmpsb %es:(%rdi),%ds:(%rsi)
  40292e:	0f 97 c1             	seta   %cl
  402931:	0f 92 c2             	setb   %dl
  402934:	b8 00 00 00 00       	mov    $0x0,%eax
  402939:	38 d1                	cmp    %dl,%cl
  40293b:	0f 85 a5 fe ff ff    	jne    4027e6 <submitr+0x6fb>
  402941:	48 81 c4 58 a0 00 00 	add    $0xa058,%rsp
  402948:	5b                   	pop    %rbx
  402949:	5d                   	pop    %rbp
  40294a:	41 5c                	pop    %r12
  40294c:	41 5d                	pop    %r13
  40294e:	41 5e                	pop    %r14
  402950:	41 5f                	pop    %r15
  402952:	c3                   	retq   

0000000000402953 <init_timeout>:
  402953:	53                   	push   %rbx
  402954:	89 fb                	mov    %edi,%ebx
  402956:	85 ff                	test   %edi,%edi
  402958:	74 1e                	je     402978 <init_timeout+0x25>
  40295a:	be b0 1f 40 00       	mov    $0x401fb0,%esi
  40295f:	bf 0e 00 00 00       	mov    $0xe,%edi
  402964:	e8 77 e3 ff ff       	callq  400ce0 <signal@plt>
  402969:	85 db                	test   %ebx,%ebx
  40296b:	bf 00 00 00 00       	mov    $0x0,%edi
  402970:	0f 49 fb             	cmovns %ebx,%edi
  402973:	e8 28 e3 ff ff       	callq  400ca0 <alarm@plt>
  402978:	5b                   	pop    %rbx
  402979:	c3                   	retq   

000000000040297a <init_driver>:
  40297a:	55                   	push   %rbp
  40297b:	53                   	push   %rbx
  40297c:	48 83 ec 18          	sub    $0x18,%rsp
  402980:	48 89 fd             	mov    %rdi,%rbp
  402983:	be 01 00 00 00       	mov    $0x1,%esi
  402988:	bf 0d 00 00 00       	mov    $0xd,%edi
  40298d:	e8 4e e3 ff ff       	callq  400ce0 <signal@plt>
  402992:	be 01 00 00 00       	mov    $0x1,%esi
  402997:	bf 1d 00 00 00       	mov    $0x1d,%edi
  40299c:	e8 3f e3 ff ff       	callq  400ce0 <signal@plt>
  4029a1:	be 01 00 00 00       	mov    $0x1,%esi
  4029a6:	bf 1d 00 00 00       	mov    $0x1d,%edi
  4029ab:	e8 30 e3 ff ff       	callq  400ce0 <signal@plt>
  4029b0:	ba 00 00 00 00       	mov    $0x0,%edx
  4029b5:	be 01 00 00 00       	mov    $0x1,%esi
  4029ba:	bf 02 00 00 00       	mov    $0x2,%edi
  4029bf:	e8 4c e4 ff ff       	callq  400e10 <socket@plt>
  4029c4:	89 c3                	mov    %eax,%ebx
  4029c6:	85 c0                	test   %eax,%eax
  4029c8:	79 4f                	jns    402a19 <init_driver+0x9f>
  4029ca:	48 b8 45 72 72 6f 72 	movabs $0x43203a726f727245,%rax
  4029d1:	3a 20 43 
  4029d4:	48 89 45 00          	mov    %rax,0x0(%rbp)
  4029d8:	48 b8 6c 69 65 6e 74 	movabs $0x6e7520746e65696c,%rax
  4029df:	20 75 6e 
  4029e2:	48 89 45 08          	mov    %rax,0x8(%rbp)
  4029e6:	48 b8 61 62 6c 65 20 	movabs $0x206f7420656c6261,%rax
  4029ed:	74 6f 20 
  4029f0:	48 89 45 10          	mov    %rax,0x10(%rbp)
  4029f4:	48 b8 63 72 65 61 74 	movabs $0x7320657461657263,%rax
  4029fb:	65 20 73 
  4029fe:	48 89 45 18          	mov    %rax,0x18(%rbp)
  402a02:	c7 45 20 6f 63 6b 65 	movl   $0x656b636f,0x20(%rbp)
  402a09:	66 c7 45 24 74 00    	movw   $0x74,0x24(%rbp)
  402a0f:	b8 ff ff ff ff       	mov    $0xffffffff,%eax
  402a14:	e9 23 01 00 00       	jmpq   402b3c <init_driver+0x1c2>
  402a19:	bf dd 30 40 00       	mov    $0x4030dd,%edi
  402a1e:	e8 cd e2 ff ff       	callq  400cf0 <gethostbyname@plt>
  402a23:	48 85 c0             	test   %rax,%rax
  402a26:	75 68                	jne    402a90 <init_driver+0x116>
  402a28:	48 b8 45 72 72 6f 72 	movabs $0x44203a726f727245,%rax
  402a2f:	3a 20 44 
  402a32:	48 89 45 00          	mov    %rax,0x0(%rbp)
  402a36:	48 b8 4e 53 20 69 73 	movabs $0x6e7520736920534e,%rax
  402a3d:	20 75 6e 
  402a40:	48 89 45 08          	mov    %rax,0x8(%rbp)
  402a44:	48 b8 61 62 6c 65 20 	movabs $0x206f7420656c6261,%rax
  402a4b:	74 6f 20 
  402a4e:	48 89 45 10          	mov    %rax,0x10(%rbp)
  402a52:	48 b8 72 65 73 6f 6c 	movabs $0x2065766c6f736572,%rax
  402a59:	76 65 20 
  402a5c:	48 89 45 18          	mov    %rax,0x18(%rbp)
  402a60:	48 b8 73 65 72 76 65 	movabs $0x6120726576726573,%rax
  402a67:	72 20 61 
  402a6a:	48 89 45 20          	mov    %rax,0x20(%rbp)
  402a6e:	c7 45 28 64 64 72 65 	movl   $0x65726464,0x28(%rbp)
  402a75:	66 c7 45 2c 73 73    	movw   $0x7373,0x2c(%rbp)
  402a7b:	c6 45 2e 00          	movb   $0x0,0x2e(%rbp)
  402a7f:	89 df                	mov    %ebx,%edi
  402a81:	e8 2a e2 ff ff       	callq  400cb0 <close@plt>
  402a86:	b8 ff ff ff ff       	mov    $0xffffffff,%eax
  402a8b:	e9 ac 00 00 00       	jmpq   402b3c <init_driver+0x1c2>
  402a90:	48 c7 04 24 00 00 00 	movq   $0x0,(%rsp)
  402a97:	00 
  402a98:	48 c7 44 24 08 00 00 	movq   $0x0,0x8(%rsp)
  402a9f:	00 00 
  402aa1:	66 c7 04 24 02 00    	movw   $0x2,(%rsp)
  402aa7:	48 63 50 14          	movslq 0x14(%rax),%rdx
  402aab:	48 8d 74 24 04       	lea    0x4(%rsp),%rsi
  402ab0:	48 8b 40 18          	mov    0x18(%rax),%rax
  402ab4:	48 8b 38             	mov    (%rax),%rdi
  402ab7:	e8 d4 e2 ff ff       	callq  400d90 <bcopy@plt>
  402abc:	66 c7 44 24 02 3c 9a 	movw   $0x9a3c,0x2(%rsp)
  402ac3:	ba 10 00 00 00       	mov    $0x10,%edx
  402ac8:	48 89 e6             	mov    %rsp,%rsi
  402acb:	89 df                	mov    %ebx,%edi
  402acd:	e8 2e e3 ff ff       	callq  400e00 <connect@plt>
  402ad2:	85 c0                	test   %eax,%eax
  402ad4:	79 50                	jns    402b26 <init_driver+0x1ac>
  402ad6:	48 b8 45 72 72 6f 72 	movabs $0x55203a726f727245,%rax
  402add:	3a 20 55 
  402ae0:	48 89 45 00          	mov    %rax,0x0(%rbp)
  402ae4:	48 b8 6e 61 62 6c 65 	movabs $0x6f7420656c62616e,%rax
  402aeb:	20 74 6f 
  402aee:	48 89 45 08          	mov    %rax,0x8(%rbp)
  402af2:	48 b8 20 63 6f 6e 6e 	movabs $0x7463656e6e6f6320,%rax
  402af9:	65 63 74 
  402afc:	48 89 45 10          	mov    %rax,0x10(%rbp)
  402b00:	48 b8 20 74 6f 20 73 	movabs $0x76726573206f7420,%rax
  402b07:	65 72 76 
  402b0a:	48 89 45 18          	mov    %rax,0x18(%rbp)
  402b0e:	66 c7 45 20 65 72    	movw   $0x7265,0x20(%rbp)
  402b14:	c6 45 22 00          	movb   $0x0,0x22(%rbp)
  402b18:	89 df                	mov    %ebx,%edi
  402b1a:	e8 91 e1 ff ff       	callq  400cb0 <close@plt>
  402b1f:	b8 ff ff ff ff       	mov    $0xffffffff,%eax
  402b24:	eb 16                	jmp    402b3c <init_driver+0x1c2>
  402b26:	89 df                	mov    %ebx,%edi
  402b28:	e8 83 e1 ff ff       	callq  400cb0 <close@plt>
  402b2d:	66 c7 45 00 4f 4b    	movw   $0x4b4f,0x0(%rbp)
  402b33:	c6 45 02 00          	movb   $0x0,0x2(%rbp)
  402b37:	b8 00 00 00 00       	mov    $0x0,%eax
  402b3c:	48 83 c4 18          	add    $0x18,%rsp
  402b40:	5b                   	pop    %rbx
  402b41:	5d                   	pop    %rbp
  402b42:	c3                   	retq   

0000000000402b43 <driver_post>:
  402b43:	53                   	push   %rbx
  402b44:	48 83 ec 10          	sub    $0x10,%rsp
  402b48:	4c 89 cb             	mov    %r9,%rbx
  402b4b:	45 85 c0             	test   %r8d,%r8d
  402b4e:	74 22                	je     402b72 <driver_post+0x2f>
  402b50:	48 89 ce             	mov    %rcx,%rsi
  402b53:	bf 95 35 40 00       	mov    $0x403595,%edi
  402b58:	b8 00 00 00 00       	mov    $0x0,%eax
  402b5d:	e8 1e e1 ff ff       	callq  400c80 <printf@plt>
  402b62:	66 c7 03 4f 4b       	movw   $0x4b4f,(%rbx)
  402b67:	c6 43 02 00          	movb   $0x0,0x2(%rbx)
  402b6b:	b8 00 00 00 00       	mov    $0x0,%eax
  402b70:	eb 39                	jmp    402bab <driver_post+0x68>
  402b72:	48 85 ff             	test   %rdi,%rdi
  402b75:	74 26                	je     402b9d <driver_post+0x5a>
  402b77:	80 3f 00             	cmpb   $0x0,(%rdi)
  402b7a:	74 21                	je     402b9d <driver_post+0x5a>
  402b7c:	4c 89 0c 24          	mov    %r9,(%rsp)
  402b80:	49 89 c9             	mov    %rcx,%r9
  402b83:	49 89 d0             	mov    %rdx,%r8
  402b86:	48 89 f9             	mov    %rdi,%rcx
  402b89:	48 89 f2             	mov    %rsi,%rdx
  402b8c:	be 9a 3c 00 00       	mov    $0x3c9a,%esi
  402b91:	bf dd 30 40 00       	mov    $0x4030dd,%edi
  402b96:	e8 50 f5 ff ff       	callq  4020eb <submitr>
  402b9b:	eb 0e                	jmp    402bab <driver_post+0x68>
  402b9d:	66 c7 03 4f 4b       	movw   $0x4b4f,(%rbx)
  402ba2:	c6 43 02 00          	movb   $0x0,0x2(%rbx)
  402ba6:	b8 00 00 00 00       	mov    $0x0,%eax
  402bab:	48 83 c4 10          	add    $0x10,%rsp
  402baf:	5b                   	pop    %rbx
  402bb0:	c3                   	retq   
  402bb1:	66 2e 0f 1f 84 00 00 	nopw   %cs:0x0(%rax,%rax,1)
  402bb8:	00 00 00 
  402bbb:	0f 1f 44 00 00       	nopl   0x0(%rax,%rax,1)

0000000000402bc0 <check>:
  402bc0:	89 fa                	mov    %edi,%edx
  402bc2:	c1 ea 1c             	shr    $0x1c,%edx
  402bc5:	b8 00 00 00 00       	mov    $0x0,%eax
  402bca:	85 d2                	test   %edx,%edx
  402bcc:	74 2e                	je     402bfc <check+0x3c>
  402bce:	40 80 ff 0a          	cmp    $0xa,%dil
  402bd2:	74 17                	je     402beb <check+0x2b>
  402bd4:	b9 08 00 00 00       	mov    $0x8,%ecx
  402bd9:	89 f8                	mov    %edi,%eax
  402bdb:	d3 e8                	shr    %cl,%eax
  402bdd:	3c 0a                	cmp    $0xa,%al
  402bdf:	74 10                	je     402bf1 <check+0x31>
  402be1:	83 c1 08             	add    $0x8,%ecx
  402be4:	83 f9 20             	cmp    $0x20,%ecx
  402be7:	75 f0                	jne    402bd9 <check+0x19>
  402be9:	eb 0c                	jmp    402bf7 <check+0x37>
  402beb:	b8 00 00 00 00       	mov    $0x0,%eax
  402bf0:	c3                   	retq   
  402bf1:	b8 00 00 00 00       	mov    $0x0,%eax
  402bf6:	c3                   	retq   
  402bf7:	b8 01 00 00 00       	mov    $0x1,%eax
  402bfc:	f3 c3                	repz retq 

0000000000402bfe <gencookie>:
  402bfe:	53                   	push   %rbx
  402bff:	83 c7 01             	add    $0x1,%edi
  402c02:	e8 19 e0 ff ff       	callq  400c20 <srandom@plt>
  402c07:	e8 44 e1 ff ff       	callq  400d50 <random@plt>
  402c0c:	89 c3                	mov    %eax,%ebx
  402c0e:	89 c7                	mov    %eax,%edi
  402c10:	e8 ab ff ff ff       	callq  402bc0 <check>
  402c15:	85 c0                	test   %eax,%eax
  402c17:	74 ee                	je     402c07 <gencookie+0x9>
  402c19:	89 d8                	mov    %ebx,%eax
  402c1b:	5b                   	pop    %rbx
  402c1c:	c3                   	retq   
  402c1d:	0f 1f 00             	nopl   (%rax)

0000000000402c20 <__libc_csu_init>:
  402c20:	41 57                	push   %r15
  402c22:	41 89 ff             	mov    %edi,%r15d
  402c25:	41 56                	push   %r14
  402c27:	49 89 f6             	mov    %rsi,%r14
  402c2a:	41 55                	push   %r13
  402c2c:	49 89 d5             	mov    %rdx,%r13
  402c2f:	41 54                	push   %r12
  402c31:	4c 8d 25 d8 21 20 00 	lea    0x2021d8(%rip),%r12        # 604e10 <__frame_dummy_init_array_entry>
  402c38:	55                   	push   %rbp
  402c39:	48 8d 2d d8 21 20 00 	lea    0x2021d8(%rip),%rbp        # 604e18 <__init_array_end>
  402c40:	53                   	push   %rbx
  402c41:	4c 29 e5             	sub    %r12,%rbp
  402c44:	31 db                	xor    %ebx,%ebx
  402c46:	48 c1 fd 03          	sar    $0x3,%rbp
  402c4a:	48 83 ec 08          	sub    $0x8,%rsp
  402c4e:	e8 75 df ff ff       	callq  400bc8 <_init>
  402c53:	48 85 ed             	test   %rbp,%rbp
  402c56:	74 1e                	je     402c76 <__libc_csu_init+0x56>
  402c58:	0f 1f 84 00 00 00 00 	nopl   0x0(%rax,%rax,1)
  402c5f:	00 
  402c60:	4c 89 ea             	mov    %r13,%rdx
  402c63:	4c 89 f6             	mov    %r14,%rsi
  402c66:	44 89 ff             	mov    %r15d,%edi
  402c69:	41 ff 14 dc          	callq  *(%r12,%rbx,8)
  402c6d:	48 83 c3 01          	add    $0x1,%rbx
  402c71:	48 39 eb             	cmp    %rbp,%rbx
  402c74:	75 ea                	jne    402c60 <__libc_csu_init+0x40>
  402c76:	48 83 c4 08          	add    $0x8,%rsp
  402c7a:	5b                   	pop    %rbx
  402c7b:	5d                   	pop    %rbp
  402c7c:	41 5c                	pop    %r12
  402c7e:	41 5d                	pop    %r13
  402c80:	41 5e                	pop    %r14
  402c82:	41 5f                	pop    %r15
  402c84:	c3                   	retq   
  402c85:	90                   	nop
  402c86:	66 2e 0f 1f 84 00 00 	nopw   %cs:0x0(%rax,%rax,1)
  402c8d:	00 00 00 

0000000000402c90 <__libc_csu_fini>:
  402c90:	f3 c3                	repz retq 

Disassembly of section .fini:

0000000000402c94 <_fini>:
  402c94:	48 83 ec 08          	sub    $0x8,%rsp
  402c98:	48 83 c4 08          	add    $0x8,%rsp
  402c9c:	c3                   	retq   
bash-4.2$ 

